
bootblock.o:     file format elf64-x86-64


Disassembly of section .text:

0000000000007c00 <start-0x400>:
    7c00:	66 2e 0f 1f 84 00 00 	cs nopw 0x0(%rax,%rax,1)
    7c07:	00 00 00
    7c0a:	66 2e 0f 1f 84 00 00 	cs nopw 0x0(%rax,%rax,1)
    7c11:	00 00 00
    7c14:	66 2e 0f 1f 84 00 00 	cs nopw 0x0(%rax,%rax,1)
    7c1b:	00 00 00
    7c1e:	66 2e 0f 1f 84 00 00 	cs nopw 0x0(%rax,%rax,1)
    7c25:	00 00 00
    7c28:	66 2e 0f 1f 84 00 00 	cs nopw 0x0(%rax,%rax,1)
    7c2f:	00 00 00
    7c32:	66 2e 0f 1f 84 00 00 	cs nopw 0x0(%rax,%rax,1)
    7c39:	00 00 00
    7c3c:	66 2e 0f 1f 84 00 00 	cs nopw 0x0(%rax,%rax,1)
    7c43:	00 00 00
    7c46:	66 2e 0f 1f 84 00 00 	cs nopw 0x0(%rax,%rax,1)
    7c4d:	00 00 00
    7c50:	66 2e 0f 1f 84 00 00 	cs nopw 0x0(%rax,%rax,1)
    7c57:	00 00 00
    7c5a:	66 2e 0f 1f 84 00 00 	cs nopw 0x0(%rax,%rax,1)
    7c61:	00 00 00
    7c64:	66 2e 0f 1f 84 00 00 	cs nopw 0x0(%rax,%rax,1)
    7c6b:	00 00 00
    7c6e:	66 2e 0f 1f 84 00 00 	cs nopw 0x0(%rax,%rax,1)
    7c75:	00 00 00
    7c78:	66 2e 0f 1f 84 00 00 	cs nopw 0x0(%rax,%rax,1)
    7c7f:	00 00 00
    7c82:	66 2e 0f 1f 84 00 00 	cs nopw 0x0(%rax,%rax,1)
    7c89:	00 00 00
    7c8c:	66 2e 0f 1f 84 00 00 	cs nopw 0x0(%rax,%rax,1)
    7c93:	00 00 00
    7c96:	66 2e 0f 1f 84 00 00 	cs nopw 0x0(%rax,%rax,1)
    7c9d:	00 00 00
    7ca0:	66 2e 0f 1f 84 00 00 	cs nopw 0x0(%rax,%rax,1)
    7ca7:	00 00 00
    7caa:	66 2e 0f 1f 84 00 00 	cs nopw 0x0(%rax,%rax,1)
    7cb1:	00 00 00
    7cb4:	66 2e 0f 1f 84 00 00 	cs nopw 0x0(%rax,%rax,1)
    7cbb:	00 00 00
    7cbe:	66 2e 0f 1f 84 00 00 	cs nopw 0x0(%rax,%rax,1)
    7cc5:	00 00 00
    7cc8:	66 2e 0f 1f 84 00 00 	cs nopw 0x0(%rax,%rax,1)
    7ccf:	00 00 00
    7cd2:	66 2e 0f 1f 84 00 00 	cs nopw 0x0(%rax,%rax,1)
    7cd9:	00 00 00
    7cdc:	66 2e 0f 1f 84 00 00 	cs nopw 0x0(%rax,%rax,1)
    7ce3:	00 00 00
    7ce6:	66 2e 0f 1f 84 00 00 	cs nopw 0x0(%rax,%rax,1)
    7ced:	00 00 00
    7cf0:	66 2e 0f 1f 84 00 00 	cs nopw 0x0(%rax,%rax,1)
    7cf7:	00 00 00
    7cfa:	66 2e 0f 1f 84 00 00 	cs nopw 0x0(%rax,%rax,1)
    7d01:	00 00 00
    7d04:	66 2e 0f 1f 84 00 00 	cs nopw 0x0(%rax,%rax,1)
    7d0b:	00 00 00
    7d0e:	66 2e 0f 1f 84 00 00 	cs nopw 0x0(%rax,%rax,1)
    7d15:	00 00 00
    7d18:	66 2e 0f 1f 84 00 00 	cs nopw 0x0(%rax,%rax,1)
    7d1f:	00 00 00
    7d22:	66 2e 0f 1f 84 00 00 	cs nopw 0x0(%rax,%rax,1)
    7d29:	00 00 00
    7d2c:	66 2e 0f 1f 84 00 00 	cs nopw 0x0(%rax,%rax,1)
    7d33:	00 00 00
    7d36:	66 2e 0f 1f 84 00 00 	cs nopw 0x0(%rax,%rax,1)
    7d3d:	00 00 00
    7d40:	66 2e 0f 1f 84 00 00 	cs nopw 0x0(%rax,%rax,1)
    7d47:	00 00 00
    7d4a:	66 2e 0f 1f 84 00 00 	cs nopw 0x0(%rax,%rax,1)
    7d51:	00 00 00
    7d54:	66 2e 0f 1f 84 00 00 	cs nopw 0x0(%rax,%rax,1)
    7d5b:	00 00 00
    7d5e:	66 2e 0f 1f 84 00 00 	cs nopw 0x0(%rax,%rax,1)
    7d65:	00 00 00
    7d68:	66 2e 0f 1f 84 00 00 	cs nopw 0x0(%rax,%rax,1)
    7d6f:	00 00 00
    7d72:	66 2e 0f 1f 84 00 00 	cs nopw 0x0(%rax,%rax,1)
    7d79:	00 00 00
    7d7c:	66 2e 0f 1f 84 00 00 	cs nopw 0x0(%rax,%rax,1)
    7d83:	00 00 00
    7d86:	66 2e 0f 1f 84 00 00 	cs nopw 0x0(%rax,%rax,1)
    7d8d:	00 00 00
    7d90:	66 2e 0f 1f 84 00 00 	cs nopw 0x0(%rax,%rax,1)
    7d97:	00 00 00
    7d9a:	66 2e 0f 1f 84 00 00 	cs nopw 0x0(%rax,%rax,1)
    7da1:	00 00 00
    7da4:	66 2e 0f 1f 84 00 00 	cs nopw 0x0(%rax,%rax,1)
    7dab:	00 00 00
    7dae:	66 2e 0f 1f 84 00 00 	cs nopw 0x0(%rax,%rax,1)
    7db5:	00 00 00
    7db8:	66 2e 0f 1f 84 00 00 	cs nopw 0x0(%rax,%rax,1)
    7dbf:	00 00 00
    7dc2:	66 2e 0f 1f 84 00 00 	cs nopw 0x0(%rax,%rax,1)
    7dc9:	00 00 00
    7dcc:	66 2e 0f 1f 84 00 00 	cs nopw 0x0(%rax,%rax,1)
    7dd3:	00 00 00
    7dd6:	66 2e 0f 1f 84 00 00 	cs nopw 0x0(%rax,%rax,1)
    7ddd:	00 00 00
    7de0:	66 2e 0f 1f 84 00 00 	cs nopw 0x0(%rax,%rax,1)
    7de7:	00 00 00
    7dea:	66 2e 0f 1f 84 00 00 	cs nopw 0x0(%rax,%rax,1)
    7df1:	00 00 00
    7df4:	66 2e 0f 1f 84 00 00 	cs nopw 0x0(%rax,%rax,1)
    7dfb:	00 00 00
    7dfe:	66 2e 0f 1f 84 00 00 	cs nopw 0x0(%rax,%rax,1)
    7e05:	00 00 00
    7e08:	66 2e 0f 1f 84 00 00 	cs nopw 0x0(%rax,%rax,1)
    7e0f:	00 00 00
    7e12:	66 2e 0f 1f 84 00 00 	cs nopw 0x0(%rax,%rax,1)
    7e19:	00 00 00
    7e1c:	66 2e 0f 1f 84 00 00 	cs nopw 0x0(%rax,%rax,1)
    7e23:	00 00 00
    7e26:	66 2e 0f 1f 84 00 00 	cs nopw 0x0(%rax,%rax,1)
    7e2d:	00 00 00
    7e30:	66 2e 0f 1f 84 00 00 	cs nopw 0x0(%rax,%rax,1)
    7e37:	00 00 00
    7e3a:	66 2e 0f 1f 84 00 00 	cs nopw 0x0(%rax,%rax,1)
    7e41:	00 00 00
    7e44:	66 2e 0f 1f 84 00 00 	cs nopw 0x0(%rax,%rax,1)
    7e4b:	00 00 00
    7e4e:	66 2e 0f 1f 84 00 00 	cs nopw 0x0(%rax,%rax,1)
    7e55:	00 00 00
    7e58:	66 2e 0f 1f 84 00 00 	cs nopw 0x0(%rax,%rax,1)
    7e5f:	00 00 00
    7e62:	66 2e 0f 1f 84 00 00 	cs nopw 0x0(%rax,%rax,1)
    7e69:	00 00 00
    7e6c:	66 2e 0f 1f 84 00 00 	cs nopw 0x0(%rax,%rax,1)
    7e73:	00 00 00
    7e76:	66 2e 0f 1f 84 00 00 	cs nopw 0x0(%rax,%rax,1)
    7e7d:	00 00 00
    7e80:	66 2e 0f 1f 84 00 00 	cs nopw 0x0(%rax,%rax,1)
    7e87:	00 00 00
    7e8a:	66 2e 0f 1f 84 00 00 	cs nopw 0x0(%rax,%rax,1)
    7e91:	00 00 00
    7e94:	66 2e 0f 1f 84 00 00 	cs nopw 0x0(%rax,%rax,1)
    7e9b:	00 00 00
    7e9e:	66 2e 0f 1f 84 00 00 	cs nopw 0x0(%rax,%rax,1)
    7ea5:	00 00 00
    7ea8:	66 2e 0f 1f 84 00 00 	cs nopw 0x0(%rax,%rax,1)
    7eaf:	00 00 00
    7eb2:	66 2e 0f 1f 84 00 00 	cs nopw 0x0(%rax,%rax,1)
    7eb9:	00 00 00
    7ebc:	66 2e 0f 1f 84 00 00 	cs nopw 0x0(%rax,%rax,1)
    7ec3:	00 00 00
    7ec6:	66 2e 0f 1f 84 00 00 	cs nopw 0x0(%rax,%rax,1)
    7ecd:	00 00 00
    7ed0:	66 2e 0f 1f 84 00 00 	cs nopw 0x0(%rax,%rax,1)
    7ed7:	00 00 00
    7eda:	66 2e 0f 1f 84 00 00 	cs nopw 0x0(%rax,%rax,1)
    7ee1:	00 00 00
    7ee4:	66 2e 0f 1f 84 00 00 	cs nopw 0x0(%rax,%rax,1)
    7eeb:	00 00 00
    7eee:	66 2e 0f 1f 84 00 00 	cs nopw 0x0(%rax,%rax,1)
    7ef5:	00 00 00
    7ef8:	66 2e 0f 1f 84 00 00 	cs nopw 0x0(%rax,%rax,1)
    7eff:	00 00 00
    7f02:	66 2e 0f 1f 84 00 00 	cs nopw 0x0(%rax,%rax,1)
    7f09:	00 00 00
    7f0c:	66 2e 0f 1f 84 00 00 	cs nopw 0x0(%rax,%rax,1)
    7f13:	00 00 00
    7f16:	66 2e 0f 1f 84 00 00 	cs nopw 0x0(%rax,%rax,1)
    7f1d:	00 00 00
    7f20:	66 2e 0f 1f 84 00 00 	cs nopw 0x0(%rax,%rax,1)
    7f27:	00 00 00
    7f2a:	66 2e 0f 1f 84 00 00 	cs nopw 0x0(%rax,%rax,1)
    7f31:	00 00 00
    7f34:	66 2e 0f 1f 84 00 00 	cs nopw 0x0(%rax,%rax,1)
    7f3b:	00 00 00
    7f3e:	66 2e 0f 1f 84 00 00 	cs nopw 0x0(%rax,%rax,1)
    7f45:	00 00 00
    7f48:	66 2e 0f 1f 84 00 00 	cs nopw 0x0(%rax,%rax,1)
    7f4f:	00 00 00
    7f52:	66 2e 0f 1f 84 00 00 	cs nopw 0x0(%rax,%rax,1)
    7f59:	00 00 00
    7f5c:	66 2e 0f 1f 84 00 00 	cs nopw 0x0(%rax,%rax,1)
    7f63:	00 00 00
    7f66:	66 2e 0f 1f 84 00 00 	cs nopw 0x0(%rax,%rax,1)
    7f6d:	00 00 00
    7f70:	66 2e 0f 1f 84 00 00 	cs nopw 0x0(%rax,%rax,1)
    7f77:	00 00 00
    7f7a:	66 2e 0f 1f 84 00 00 	cs nopw 0x0(%rax,%rax,1)
    7f81:	00 00 00
    7f84:	66 2e 0f 1f 84 00 00 	cs nopw 0x0(%rax,%rax,1)
    7f8b:	00 00 00
    7f8e:	66 2e 0f 1f 84 00 00 	cs nopw 0x0(%rax,%rax,1)
    7f95:	00 00 00
    7f98:	66 2e 0f 1f 84 00 00 	cs nopw 0x0(%rax,%rax,1)
    7f9f:	00 00 00
    7fa2:	66 2e 0f 1f 84 00 00 	cs nopw 0x0(%rax,%rax,1)
    7fa9:	00 00 00
    7fac:	66 2e 0f 1f 84 00 00 	cs nopw 0x0(%rax,%rax,1)
    7fb3:	00 00 00
    7fb6:	66 2e 0f 1f 84 00 00 	cs nopw 0x0(%rax,%rax,1)
    7fbd:	00 00 00
    7fc0:	66 2e 0f 1f 84 00 00 	cs nopw 0x0(%rax,%rax,1)
    7fc7:	00 00 00
    7fca:	66 2e 0f 1f 84 00 00 	cs nopw 0x0(%rax,%rax,1)
    7fd1:	00 00 00
    7fd4:	66 2e 0f 1f 84 00 00 	cs nopw 0x0(%rax,%rax,1)
    7fdb:	00 00 00
    7fde:	66 2e 0f 1f 84 00 00 	cs nopw 0x0(%rax,%rax,1)
    7fe5:	00 00 00
    7fe8:	66 2e 0f 1f 84 00 00 	cs nopw 0x0(%rax,%rax,1)
    7fef:	00 00 00
    7ff2:	66 2e 0f 1f 84 00 00 	cs nopw 0x0(%rax,%rax,1)
    7ff9:	00 00 00
    7ffc:	0f 1f 40 00          	nopl   0x0(%rax)

0000000000008000 <start>:
# 64-bit segment descriptor helper provided by asm.h

.code16
.globl start
start:
    cli
    8000:	fa                   	cli
    xorw %ax,%ax
    8001:	31 c0                	xor    %eax,%eax
    movw %ax,%ds
    8003:	8e d8                	mov    %eax,%ds
    movw %ax,%es
    8005:	8e c0                	mov    %eax,%es
    movw %ax,%ss
    8007:	8e d0                	mov    %eax,%ss

    # Enable access to memory above 1MB
    ENABLE_A20
    8009:	e4 64                	in     $0x64,%al
    800b:	a8 02                	test   $0x2,%al
    800d:	75 fa                	jne    8009 <start+0x9>
    800f:	b0 d1                	mov    $0xd1,%al
    8011:	e6 64                	out    %al,$0x64
    8013:	e4 64                	in     $0x64,%al
    8015:	a8 02                	test   $0x2,%al
    8017:	75 fa                	jne    8013 <start+0x13>
    8019:	b0 df                	mov    $0xdf,%al
    801b:	e6 60                	out    %al,$0x60

    SETUP_PROT_MODE(gdtdesc32, 1<<3, prot32)
    801d:	0f 01 16             	lgdt   (%rsi)
    8020:	a4                   	movsb  %ds:(%rsi),%es:(%rdi)
    8021:	80 0f 20             	orb    $0x20,(%rdi)
    8024:	c0 66 83 c8          	shlb   $0xc8,-0x7d(%rsi)
    8028:	01 0f                	add    %ecx,(%rdi)
    802a:	22 c0                	and    %al,%al
    802c:	ea                   	(bad)
    802d:	31                   	.byte 0x31
    802e:	80 08 00             	orb    $0x0,(%rax)

0000000000008031 <prot32>:

.code32
prot32:
    INIT_PROT_MODE_DATA(2<<3)
    8031:	66 b8 10 00          	mov    $0x10,%ax
    8035:	8e d8                	mov    %eax,%ds
    8037:	8e c0                	mov    %eax,%es
    8039:	8e d0                	mov    %eax,%ss
    803b:	66 b8 00 00          	mov    $0x0,%ax
    803f:	8e e0                	mov    %eax,%fs
    8041:	8e e8                	mov    %eax,%gs

    lgdt gdtdesc64
    8043:	0f 01 15 c4 80 00 00 	lgdt   0x80c4(%rip)        # 1010e <__bss_start+0x4ee6>

    movl %cr4,%eax
    804a:	0f 20 e0             	mov    %cr4,%rax
    orl $CR4_PAE,%eax
    804d:	83 c8 20             	or     $0x20,%eax
    movl %eax,%cr4
    8050:	0f 22 e0             	mov    %rax,%cr4

    movl $pml4,%eax
    8053:	b8 00 90 00 00       	mov    $0x9000,%eax
    movl %eax,%cr3
    8058:	0f 22 d8             	mov    %rax,%cr3

    movl $0xC0000080,%ecx
    805b:	b9 80 00 00 c0       	mov    $0xc0000080,%ecx
    rdmsr
    8060:	0f 32                	rdmsr
    orl $0x00000100,%eax
    8062:	0d 00 01 00 00       	or     $0x100,%eax
    wrmsr
    8067:	0f 30                	wrmsr

    movl %cr0,%eax
    8069:	0f 20 c0             	mov    %cr0,%rax
    orl $(CR0_PE|CR0_PG|CR0_WP),%eax
    806c:	0d 01 00 01 80       	or     $0x80010001,%eax
    movl %eax,%cr0
    8071:	0f 22 c0             	mov    %rax,%cr0

    ljmp $(3<<3), $longmode
    8074:	ea                   	(bad)
    8075:	7b 80                	jnp    7ff7 <start-0x9>
    8077:	00 00                	add    %al,(%rax)
    8079:	18 00                	sbb    %al,(%rax)

000000000000807b <longmode>:

.code64
longmode:
    mov $start,%rsp
    807b:	48 c7 c4 00 80 00 00 	mov    $0x8000,%rsp
    call bootmain
    8082:	e8 5e 30 00 00       	call   b0e5 <bootmain>
1:  jmp 1b
    8087:	eb fe                	jmp    8087 <longmode+0xc>
    8089:	0f 1f 00             	nopl   (%rax)

000000000000808c <gdt32>:
	...
    8094:	ff                   	(bad)
    8095:	ff 00                	incl   (%rax)
    8097:	00 00                	add    %al,(%rax)
    8099:	9a                   	(bad)
    809a:	cf                   	iret
    809b:	00 ff                	add    %bh,%bh
    809d:	ff 00                	incl   (%rax)
    809f:	00 00                	add    %al,(%rax)
    80a1:	92                   	xchg   %eax,%edx
    80a2:	cf                   	iret
	...

00000000000080a4 <gdtdesc32>:
    80a4:	17                   	(bad)
    80a5:	00 8c 80 00 00 90 90 	add    %cl,-0x6f700000(%rax,%rax,4)

00000000000080ac <gdt64>:
	...
    80b4:	ff                   	(bad)
    80b5:	ff 00                	incl   (%rax)
    80b7:	00 00                	add    %al,(%rax)
    80b9:	9a                   	(bad)
    80ba:	af                   	scas   %es:(%rdi),%eax
    80bb:	00 ff                	add    %bh,%bh
    80bd:	ff 00                	incl   (%rax)
    80bf:	00 00                	add    %al,(%rax)
    80c1:	92                   	xchg   %eax,%edx
    80c2:	af                   	scas   %es:(%rdi),%eax
	...

00000000000080c4 <gdtdesc64>:
    80c4:	17                   	(bad)
    80c5:	00 ac 80 00 00 00 00 	add    %ch,0x0(%rax,%rax,4)
    80cc:	00 00                	add    %al,(%rax)
    80ce:	90                   	nop
    80cf:	e9 2c 0f 00 00       	jmp    9000 <pml4>
    80d4:	66 66 2e 0f 1f 84 00 	data16 cs nopw 0x0(%rax,%rax,1)
    80db:	00 00 00 00
    80df:	66 66 2e 0f 1f 84 00 	data16 cs nopw 0x0(%rax,%rax,1)
    80e6:	00 00 00 00
    80ea:	66 66 2e 0f 1f 84 00 	data16 cs nopw 0x0(%rax,%rax,1)
    80f1:	00 00 00 00
    80f5:	66 66 2e 0f 1f 84 00 	data16 cs nopw 0x0(%rax,%rax,1)
    80fc:	00 00 00 00
    8100:	66 66 2e 0f 1f 84 00 	data16 cs nopw 0x0(%rax,%rax,1)
    8107:	00 00 00 00
    810b:	66 66 2e 0f 1f 84 00 	data16 cs nopw 0x0(%rax,%rax,1)
    8112:	00 00 00 00
    8116:	66 66 2e 0f 1f 84 00 	data16 cs nopw 0x0(%rax,%rax,1)
    811d:	00 00 00 00
    8121:	66 66 2e 0f 1f 84 00 	data16 cs nopw 0x0(%rax,%rax,1)
    8128:	00 00 00 00
    812c:	66 66 2e 0f 1f 84 00 	data16 cs nopw 0x0(%rax,%rax,1)
    8133:	00 00 00 00
    8137:	66 66 2e 0f 1f 84 00 	data16 cs nopw 0x0(%rax,%rax,1)
    813e:	00 00 00 00
    8142:	66 66 2e 0f 1f 84 00 	data16 cs nopw 0x0(%rax,%rax,1)
    8149:	00 00 00 00
    814d:	66 66 2e 0f 1f 84 00 	data16 cs nopw 0x0(%rax,%rax,1)
    8154:	00 00 00 00
    8158:	66 66 2e 0f 1f 84 00 	data16 cs nopw 0x0(%rax,%rax,1)
    815f:	00 00 00 00
    8163:	66 66 2e 0f 1f 84 00 	data16 cs nopw 0x0(%rax,%rax,1)
    816a:	00 00 00 00
    816e:	66 66 2e 0f 1f 84 00 	data16 cs nopw 0x0(%rax,%rax,1)
    8175:	00 00 00 00
    8179:	66 66 2e 0f 1f 84 00 	data16 cs nopw 0x0(%rax,%rax,1)
    8180:	00 00 00 00
    8184:	66 66 2e 0f 1f 84 00 	data16 cs nopw 0x0(%rax,%rax,1)
    818b:	00 00 00 00
    818f:	66 66 2e 0f 1f 84 00 	data16 cs nopw 0x0(%rax,%rax,1)
    8196:	00 00 00 00
    819a:	66 66 2e 0f 1f 84 00 	data16 cs nopw 0x0(%rax,%rax,1)
    81a1:	00 00 00 00
    81a5:	66 66 2e 0f 1f 84 00 	data16 cs nopw 0x0(%rax,%rax,1)
    81ac:	00 00 00 00
    81b0:	66 66 2e 0f 1f 84 00 	data16 cs nopw 0x0(%rax,%rax,1)
    81b7:	00 00 00 00
    81bb:	66 66 2e 0f 1f 84 00 	data16 cs nopw 0x0(%rax,%rax,1)
    81c2:	00 00 00 00
    81c6:	66 66 2e 0f 1f 84 00 	data16 cs nopw 0x0(%rax,%rax,1)
    81cd:	00 00 00 00
    81d1:	66 66 2e 0f 1f 84 00 	data16 cs nopw 0x0(%rax,%rax,1)
    81d8:	00 00 00 00
    81dc:	66 66 2e 0f 1f 84 00 	data16 cs nopw 0x0(%rax,%rax,1)
    81e3:	00 00 00 00
    81e7:	66 66 2e 0f 1f 84 00 	data16 cs nopw 0x0(%rax,%rax,1)
    81ee:	00 00 00 00
    81f2:	66 66 2e 0f 1f 84 00 	data16 cs nopw 0x0(%rax,%rax,1)
    81f9:	00 00 00 00
    81fd:	66 66 2e 0f 1f 84 00 	data16 cs nopw 0x0(%rax,%rax,1)
    8204:	00 00 00 00
    8208:	66 66 2e 0f 1f 84 00 	data16 cs nopw 0x0(%rax,%rax,1)
    820f:	00 00 00 00
    8213:	66 66 2e 0f 1f 84 00 	data16 cs nopw 0x0(%rax,%rax,1)
    821a:	00 00 00 00
    821e:	66 66 2e 0f 1f 84 00 	data16 cs nopw 0x0(%rax,%rax,1)
    8225:	00 00 00 00
    8229:	66 66 2e 0f 1f 84 00 	data16 cs nopw 0x0(%rax,%rax,1)
    8230:	00 00 00 00
    8234:	66 66 2e 0f 1f 84 00 	data16 cs nopw 0x0(%rax,%rax,1)
    823b:	00 00 00 00
    823f:	66 66 2e 0f 1f 84 00 	data16 cs nopw 0x0(%rax,%rax,1)
    8246:	00 00 00 00
    824a:	66 66 2e 0f 1f 84 00 	data16 cs nopw 0x0(%rax,%rax,1)
    8251:	00 00 00 00
    8255:	66 66 2e 0f 1f 84 00 	data16 cs nopw 0x0(%rax,%rax,1)
    825c:	00 00 00 00
    8260:	66 66 2e 0f 1f 84 00 	data16 cs nopw 0x0(%rax,%rax,1)
    8267:	00 00 00 00
    826b:	66 66 2e 0f 1f 84 00 	data16 cs nopw 0x0(%rax,%rax,1)
    8272:	00 00 00 00
    8276:	66 66 2e 0f 1f 84 00 	data16 cs nopw 0x0(%rax,%rax,1)
    827d:	00 00 00 00
    8281:	66 66 2e 0f 1f 84 00 	data16 cs nopw 0x0(%rax,%rax,1)
    8288:	00 00 00 00
    828c:	66 66 2e 0f 1f 84 00 	data16 cs nopw 0x0(%rax,%rax,1)
    8293:	00 00 00 00
    8297:	66 66 2e 0f 1f 84 00 	data16 cs nopw 0x0(%rax,%rax,1)
    829e:	00 00 00 00
    82a2:	66 66 2e 0f 1f 84 00 	data16 cs nopw 0x0(%rax,%rax,1)
    82a9:	00 00 00 00
    82ad:	66 66 2e 0f 1f 84 00 	data16 cs nopw 0x0(%rax,%rax,1)
    82b4:	00 00 00 00
    82b8:	66 66 2e 0f 1f 84 00 	data16 cs nopw 0x0(%rax,%rax,1)
    82bf:	00 00 00 00
    82c3:	66 66 2e 0f 1f 84 00 	data16 cs nopw 0x0(%rax,%rax,1)
    82ca:	00 00 00 00
    82ce:	66 66 2e 0f 1f 84 00 	data16 cs nopw 0x0(%rax,%rax,1)
    82d5:	00 00 00 00
    82d9:	66 66 2e 0f 1f 84 00 	data16 cs nopw 0x0(%rax,%rax,1)
    82e0:	00 00 00 00
    82e4:	66 66 2e 0f 1f 84 00 	data16 cs nopw 0x0(%rax,%rax,1)
    82eb:	00 00 00 00
    82ef:	66 66 2e 0f 1f 84 00 	data16 cs nopw 0x0(%rax,%rax,1)
    82f6:	00 00 00 00
    82fa:	66 66 2e 0f 1f 84 00 	data16 cs nopw 0x0(%rax,%rax,1)
    8301:	00 00 00 00
    8305:	66 66 2e 0f 1f 84 00 	data16 cs nopw 0x0(%rax,%rax,1)
    830c:	00 00 00 00
    8310:	66 66 2e 0f 1f 84 00 	data16 cs nopw 0x0(%rax,%rax,1)
    8317:	00 00 00 00
    831b:	66 66 2e 0f 1f 84 00 	data16 cs nopw 0x0(%rax,%rax,1)
    8322:	00 00 00 00
    8326:	66 66 2e 0f 1f 84 00 	data16 cs nopw 0x0(%rax,%rax,1)
    832d:	00 00 00 00
    8331:	66 66 2e 0f 1f 84 00 	data16 cs nopw 0x0(%rax,%rax,1)
    8338:	00 00 00 00
    833c:	66 66 2e 0f 1f 84 00 	data16 cs nopw 0x0(%rax,%rax,1)
    8343:	00 00 00 00
    8347:	66 66 2e 0f 1f 84 00 	data16 cs nopw 0x0(%rax,%rax,1)
    834e:	00 00 00 00
    8352:	66 66 2e 0f 1f 84 00 	data16 cs nopw 0x0(%rax,%rax,1)
    8359:	00 00 00 00
    835d:	66 66 2e 0f 1f 84 00 	data16 cs nopw 0x0(%rax,%rax,1)
    8364:	00 00 00 00
    8368:	66 66 2e 0f 1f 84 00 	data16 cs nopw 0x0(%rax,%rax,1)
    836f:	00 00 00 00
    8373:	66 66 2e 0f 1f 84 00 	data16 cs nopw 0x0(%rax,%rax,1)
    837a:	00 00 00 00
    837e:	66 66 2e 0f 1f 84 00 	data16 cs nopw 0x0(%rax,%rax,1)
    8385:	00 00 00 00
    8389:	66 66 2e 0f 1f 84 00 	data16 cs nopw 0x0(%rax,%rax,1)
    8390:	00 00 00 00
    8394:	66 66 2e 0f 1f 84 00 	data16 cs nopw 0x0(%rax,%rax,1)
    839b:	00 00 00 00
    839f:	66 66 2e 0f 1f 84 00 	data16 cs nopw 0x0(%rax,%rax,1)
    83a6:	00 00 00 00
    83aa:	66 66 2e 0f 1f 84 00 	data16 cs nopw 0x0(%rax,%rax,1)
    83b1:	00 00 00 00
    83b5:	66 66 2e 0f 1f 84 00 	data16 cs nopw 0x0(%rax,%rax,1)
    83bc:	00 00 00 00
    83c0:	66 66 2e 0f 1f 84 00 	data16 cs nopw 0x0(%rax,%rax,1)
    83c7:	00 00 00 00
    83cb:	66 66 2e 0f 1f 84 00 	data16 cs nopw 0x0(%rax,%rax,1)
    83d2:	00 00 00 00
    83d6:	66 66 2e 0f 1f 84 00 	data16 cs nopw 0x0(%rax,%rax,1)
    83dd:	00 00 00 00
    83e1:	66 66 2e 0f 1f 84 00 	data16 cs nopw 0x0(%rax,%rax,1)
    83e8:	00 00 00 00
    83ec:	66 66 2e 0f 1f 84 00 	data16 cs nopw 0x0(%rax,%rax,1)
    83f3:	00 00 00 00
    83f7:	66 66 2e 0f 1f 84 00 	data16 cs nopw 0x0(%rax,%rax,1)
    83fe:	00 00 00 00
    8402:	66 66 2e 0f 1f 84 00 	data16 cs nopw 0x0(%rax,%rax,1)
    8409:	00 00 00 00
    840d:	66 66 2e 0f 1f 84 00 	data16 cs nopw 0x0(%rax,%rax,1)
    8414:	00 00 00 00
    8418:	66 66 2e 0f 1f 84 00 	data16 cs nopw 0x0(%rax,%rax,1)
    841f:	00 00 00 00
    8423:	66 66 2e 0f 1f 84 00 	data16 cs nopw 0x0(%rax,%rax,1)
    842a:	00 00 00 00
    842e:	66 66 2e 0f 1f 84 00 	data16 cs nopw 0x0(%rax,%rax,1)
    8435:	00 00 00 00
    8439:	66 66 2e 0f 1f 84 00 	data16 cs nopw 0x0(%rax,%rax,1)
    8440:	00 00 00 00
    8444:	66 66 2e 0f 1f 84 00 	data16 cs nopw 0x0(%rax,%rax,1)
    844b:	00 00 00 00
    844f:	66 66 2e 0f 1f 84 00 	data16 cs nopw 0x0(%rax,%rax,1)
    8456:	00 00 00 00
    845a:	66 66 2e 0f 1f 84 00 	data16 cs nopw 0x0(%rax,%rax,1)
    8461:	00 00 00 00
    8465:	66 66 2e 0f 1f 84 00 	data16 cs nopw 0x0(%rax,%rax,1)
    846c:	00 00 00 00
    8470:	66 66 2e 0f 1f 84 00 	data16 cs nopw 0x0(%rax,%rax,1)
    8477:	00 00 00 00
    847b:	66 66 2e 0f 1f 84 00 	data16 cs nopw 0x0(%rax,%rax,1)
    8482:	00 00 00 00
    8486:	66 66 2e 0f 1f 84 00 	data16 cs nopw 0x0(%rax,%rax,1)
    848d:	00 00 00 00
    8491:	66 66 2e 0f 1f 84 00 	data16 cs nopw 0x0(%rax,%rax,1)
    8498:	00 00 00 00
    849c:	66 66 2e 0f 1f 84 00 	data16 cs nopw 0x0(%rax,%rax,1)
    84a3:	00 00 00 00
    84a7:	66 66 2e 0f 1f 84 00 	data16 cs nopw 0x0(%rax,%rax,1)
    84ae:	00 00 00 00
    84b2:	66 66 2e 0f 1f 84 00 	data16 cs nopw 0x0(%rax,%rax,1)
    84b9:	00 00 00 00
    84bd:	66 66 2e 0f 1f 84 00 	data16 cs nopw 0x0(%rax,%rax,1)
    84c4:	00 00 00 00
    84c8:	66 66 2e 0f 1f 84 00 	data16 cs nopw 0x0(%rax,%rax,1)
    84cf:	00 00 00 00
    84d3:	66 66 2e 0f 1f 84 00 	data16 cs nopw 0x0(%rax,%rax,1)
    84da:	00 00 00 00
    84de:	66 66 2e 0f 1f 84 00 	data16 cs nopw 0x0(%rax,%rax,1)
    84e5:	00 00 00 00
    84e9:	66 66 2e 0f 1f 84 00 	data16 cs nopw 0x0(%rax,%rax,1)
    84f0:	00 00 00 00
    84f4:	66 66 2e 0f 1f 84 00 	data16 cs nopw 0x0(%rax,%rax,1)
    84fb:	00 00 00 00
    84ff:	66 66 2e 0f 1f 84 00 	data16 cs nopw 0x0(%rax,%rax,1)
    8506:	00 00 00 00
    850a:	66 66 2e 0f 1f 84 00 	data16 cs nopw 0x0(%rax,%rax,1)
    8511:	00 00 00 00
    8515:	66 66 2e 0f 1f 84 00 	data16 cs nopw 0x0(%rax,%rax,1)
    851c:	00 00 00 00
    8520:	66 66 2e 0f 1f 84 00 	data16 cs nopw 0x0(%rax,%rax,1)
    8527:	00 00 00 00
    852b:	66 66 2e 0f 1f 84 00 	data16 cs nopw 0x0(%rax,%rax,1)
    8532:	00 00 00 00
    8536:	66 66 2e 0f 1f 84 00 	data16 cs nopw 0x0(%rax,%rax,1)
    853d:	00 00 00 00
    8541:	66 66 2e 0f 1f 84 00 	data16 cs nopw 0x0(%rax,%rax,1)
    8548:	00 00 00 00
    854c:	66 66 2e 0f 1f 84 00 	data16 cs nopw 0x0(%rax,%rax,1)
    8553:	00 00 00 00
    8557:	66 66 2e 0f 1f 84 00 	data16 cs nopw 0x0(%rax,%rax,1)
    855e:	00 00 00 00
    8562:	66 66 2e 0f 1f 84 00 	data16 cs nopw 0x0(%rax,%rax,1)
    8569:	00 00 00 00
    856d:	66 66 2e 0f 1f 84 00 	data16 cs nopw 0x0(%rax,%rax,1)
    8574:	00 00 00 00
    8578:	66 66 2e 0f 1f 84 00 	data16 cs nopw 0x0(%rax,%rax,1)
    857f:	00 00 00 00
    8583:	66 66 2e 0f 1f 84 00 	data16 cs nopw 0x0(%rax,%rax,1)
    858a:	00 00 00 00
    858e:	66 66 2e 0f 1f 84 00 	data16 cs nopw 0x0(%rax,%rax,1)
    8595:	00 00 00 00
    8599:	66 66 2e 0f 1f 84 00 	data16 cs nopw 0x0(%rax,%rax,1)
    85a0:	00 00 00 00
    85a4:	66 66 2e 0f 1f 84 00 	data16 cs nopw 0x0(%rax,%rax,1)
    85ab:	00 00 00 00
    85af:	66 66 2e 0f 1f 84 00 	data16 cs nopw 0x0(%rax,%rax,1)
    85b6:	00 00 00 00
    85ba:	66 66 2e 0f 1f 84 00 	data16 cs nopw 0x0(%rax,%rax,1)
    85c1:	00 00 00 00
    85c5:	66 66 2e 0f 1f 84 00 	data16 cs nopw 0x0(%rax,%rax,1)
    85cc:	00 00 00 00
    85d0:	66 66 2e 0f 1f 84 00 	data16 cs nopw 0x0(%rax,%rax,1)
    85d7:	00 00 00 00
    85db:	66 66 2e 0f 1f 84 00 	data16 cs nopw 0x0(%rax,%rax,1)
    85e2:	00 00 00 00
    85e6:	66 66 2e 0f 1f 84 00 	data16 cs nopw 0x0(%rax,%rax,1)
    85ed:	00 00 00 00
    85f1:	66 66 2e 0f 1f 84 00 	data16 cs nopw 0x0(%rax,%rax,1)
    85f8:	00 00 00 00
    85fc:	66 66 2e 0f 1f 84 00 	data16 cs nopw 0x0(%rax,%rax,1)
    8603:	00 00 00 00
    8607:	66 66 2e 0f 1f 84 00 	data16 cs nopw 0x0(%rax,%rax,1)
    860e:	00 00 00 00
    8612:	66 66 2e 0f 1f 84 00 	data16 cs nopw 0x0(%rax,%rax,1)
    8619:	00 00 00 00
    861d:	66 66 2e 0f 1f 84 00 	data16 cs nopw 0x0(%rax,%rax,1)
    8624:	00 00 00 00
    8628:	66 66 2e 0f 1f 84 00 	data16 cs nopw 0x0(%rax,%rax,1)
    862f:	00 00 00 00
    8633:	66 66 2e 0f 1f 84 00 	data16 cs nopw 0x0(%rax,%rax,1)
    863a:	00 00 00 00
    863e:	66 66 2e 0f 1f 84 00 	data16 cs nopw 0x0(%rax,%rax,1)
    8645:	00 00 00 00
    8649:	66 66 2e 0f 1f 84 00 	data16 cs nopw 0x0(%rax,%rax,1)
    8650:	00 00 00 00
    8654:	66 66 2e 0f 1f 84 00 	data16 cs nopw 0x0(%rax,%rax,1)
    865b:	00 00 00 00
    865f:	66 66 2e 0f 1f 84 00 	data16 cs nopw 0x0(%rax,%rax,1)
    8666:	00 00 00 00
    866a:	66 66 2e 0f 1f 84 00 	data16 cs nopw 0x0(%rax,%rax,1)
    8671:	00 00 00 00
    8675:	66 66 2e 0f 1f 84 00 	data16 cs nopw 0x0(%rax,%rax,1)
    867c:	00 00 00 00
    8680:	66 66 2e 0f 1f 84 00 	data16 cs nopw 0x0(%rax,%rax,1)
    8687:	00 00 00 00
    868b:	66 66 2e 0f 1f 84 00 	data16 cs nopw 0x0(%rax,%rax,1)
    8692:	00 00 00 00
    8696:	66 66 2e 0f 1f 84 00 	data16 cs nopw 0x0(%rax,%rax,1)
    869d:	00 00 00 00
    86a1:	66 66 2e 0f 1f 84 00 	data16 cs nopw 0x0(%rax,%rax,1)
    86a8:	00 00 00 00
    86ac:	66 66 2e 0f 1f 84 00 	data16 cs nopw 0x0(%rax,%rax,1)
    86b3:	00 00 00 00
    86b7:	66 66 2e 0f 1f 84 00 	data16 cs nopw 0x0(%rax,%rax,1)
    86be:	00 00 00 00
    86c2:	66 66 2e 0f 1f 84 00 	data16 cs nopw 0x0(%rax,%rax,1)
    86c9:	00 00 00 00
    86cd:	66 66 2e 0f 1f 84 00 	data16 cs nopw 0x0(%rax,%rax,1)
    86d4:	00 00 00 00
    86d8:	66 66 2e 0f 1f 84 00 	data16 cs nopw 0x0(%rax,%rax,1)
    86df:	00 00 00 00
    86e3:	66 66 2e 0f 1f 84 00 	data16 cs nopw 0x0(%rax,%rax,1)
    86ea:	00 00 00 00
    86ee:	66 66 2e 0f 1f 84 00 	data16 cs nopw 0x0(%rax,%rax,1)
    86f5:	00 00 00 00
    86f9:	66 66 2e 0f 1f 84 00 	data16 cs nopw 0x0(%rax,%rax,1)
    8700:	00 00 00 00
    8704:	66 66 2e 0f 1f 84 00 	data16 cs nopw 0x0(%rax,%rax,1)
    870b:	00 00 00 00
    870f:	66 66 2e 0f 1f 84 00 	data16 cs nopw 0x0(%rax,%rax,1)
    8716:	00 00 00 00
    871a:	66 66 2e 0f 1f 84 00 	data16 cs nopw 0x0(%rax,%rax,1)
    8721:	00 00 00 00
    8725:	66 66 2e 0f 1f 84 00 	data16 cs nopw 0x0(%rax,%rax,1)
    872c:	00 00 00 00
    8730:	66 66 2e 0f 1f 84 00 	data16 cs nopw 0x0(%rax,%rax,1)
    8737:	00 00 00 00
    873b:	66 66 2e 0f 1f 84 00 	data16 cs nopw 0x0(%rax,%rax,1)
    8742:	00 00 00 00
    8746:	66 66 2e 0f 1f 84 00 	data16 cs nopw 0x0(%rax,%rax,1)
    874d:	00 00 00 00
    8751:	66 66 2e 0f 1f 84 00 	data16 cs nopw 0x0(%rax,%rax,1)
    8758:	00 00 00 00
    875c:	66 66 2e 0f 1f 84 00 	data16 cs nopw 0x0(%rax,%rax,1)
    8763:	00 00 00 00
    8767:	66 66 2e 0f 1f 84 00 	data16 cs nopw 0x0(%rax,%rax,1)
    876e:	00 00 00 00
    8772:	66 66 2e 0f 1f 84 00 	data16 cs nopw 0x0(%rax,%rax,1)
    8779:	00 00 00 00
    877d:	66 66 2e 0f 1f 84 00 	data16 cs nopw 0x0(%rax,%rax,1)
    8784:	00 00 00 00
    8788:	66 66 2e 0f 1f 84 00 	data16 cs nopw 0x0(%rax,%rax,1)
    878f:	00 00 00 00
    8793:	66 66 2e 0f 1f 84 00 	data16 cs nopw 0x0(%rax,%rax,1)
    879a:	00 00 00 00
    879e:	66 66 2e 0f 1f 84 00 	data16 cs nopw 0x0(%rax,%rax,1)
    87a5:	00 00 00 00
    87a9:	66 66 2e 0f 1f 84 00 	data16 cs nopw 0x0(%rax,%rax,1)
    87b0:	00 00 00 00
    87b4:	66 66 2e 0f 1f 84 00 	data16 cs nopw 0x0(%rax,%rax,1)
    87bb:	00 00 00 00
    87bf:	66 66 2e 0f 1f 84 00 	data16 cs nopw 0x0(%rax,%rax,1)
    87c6:	00 00 00 00
    87ca:	66 66 2e 0f 1f 84 00 	data16 cs nopw 0x0(%rax,%rax,1)
    87d1:	00 00 00 00
    87d5:	66 66 2e 0f 1f 84 00 	data16 cs nopw 0x0(%rax,%rax,1)
    87dc:	00 00 00 00
    87e0:	66 66 2e 0f 1f 84 00 	data16 cs nopw 0x0(%rax,%rax,1)
    87e7:	00 00 00 00
    87eb:	66 66 2e 0f 1f 84 00 	data16 cs nopw 0x0(%rax,%rax,1)
    87f2:	00 00 00 00
    87f6:	66 66 2e 0f 1f 84 00 	data16 cs nopw 0x0(%rax,%rax,1)
    87fd:	00 00 00 00
    8801:	66 66 2e 0f 1f 84 00 	data16 cs nopw 0x0(%rax,%rax,1)
    8808:	00 00 00 00
    880c:	66 66 2e 0f 1f 84 00 	data16 cs nopw 0x0(%rax,%rax,1)
    8813:	00 00 00 00
    8817:	66 66 2e 0f 1f 84 00 	data16 cs nopw 0x0(%rax,%rax,1)
    881e:	00 00 00 00
    8822:	66 66 2e 0f 1f 84 00 	data16 cs nopw 0x0(%rax,%rax,1)
    8829:	00 00 00 00
    882d:	66 66 2e 0f 1f 84 00 	data16 cs nopw 0x0(%rax,%rax,1)
    8834:	00 00 00 00
    8838:	66 66 2e 0f 1f 84 00 	data16 cs nopw 0x0(%rax,%rax,1)
    883f:	00 00 00 00
    8843:	66 66 2e 0f 1f 84 00 	data16 cs nopw 0x0(%rax,%rax,1)
    884a:	00 00 00 00
    884e:	66 66 2e 0f 1f 84 00 	data16 cs nopw 0x0(%rax,%rax,1)
    8855:	00 00 00 00
    8859:	66 66 2e 0f 1f 84 00 	data16 cs nopw 0x0(%rax,%rax,1)
    8860:	00 00 00 00
    8864:	66 66 2e 0f 1f 84 00 	data16 cs nopw 0x0(%rax,%rax,1)
    886b:	00 00 00 00
    886f:	66 66 2e 0f 1f 84 00 	data16 cs nopw 0x0(%rax,%rax,1)
    8876:	00 00 00 00
    887a:	66 66 2e 0f 1f 84 00 	data16 cs nopw 0x0(%rax,%rax,1)
    8881:	00 00 00 00
    8885:	66 66 2e 0f 1f 84 00 	data16 cs nopw 0x0(%rax,%rax,1)
    888c:	00 00 00 00
    8890:	66 66 2e 0f 1f 84 00 	data16 cs nopw 0x0(%rax,%rax,1)
    8897:	00 00 00 00
    889b:	66 66 2e 0f 1f 84 00 	data16 cs nopw 0x0(%rax,%rax,1)
    88a2:	00 00 00 00
    88a6:	66 66 2e 0f 1f 84 00 	data16 cs nopw 0x0(%rax,%rax,1)
    88ad:	00 00 00 00
    88b1:	66 66 2e 0f 1f 84 00 	data16 cs nopw 0x0(%rax,%rax,1)
    88b8:	00 00 00 00
    88bc:	66 66 2e 0f 1f 84 00 	data16 cs nopw 0x0(%rax,%rax,1)
    88c3:	00 00 00 00
    88c7:	66 66 2e 0f 1f 84 00 	data16 cs nopw 0x0(%rax,%rax,1)
    88ce:	00 00 00 00
    88d2:	66 66 2e 0f 1f 84 00 	data16 cs nopw 0x0(%rax,%rax,1)
    88d9:	00 00 00 00
    88dd:	66 66 2e 0f 1f 84 00 	data16 cs nopw 0x0(%rax,%rax,1)
    88e4:	00 00 00 00
    88e8:	66 66 2e 0f 1f 84 00 	data16 cs nopw 0x0(%rax,%rax,1)
    88ef:	00 00 00 00
    88f3:	66 66 2e 0f 1f 84 00 	data16 cs nopw 0x0(%rax,%rax,1)
    88fa:	00 00 00 00
    88fe:	66 66 2e 0f 1f 84 00 	data16 cs nopw 0x0(%rax,%rax,1)
    8905:	00 00 00 00
    8909:	66 66 2e 0f 1f 84 00 	data16 cs nopw 0x0(%rax,%rax,1)
    8910:	00 00 00 00
    8914:	66 66 2e 0f 1f 84 00 	data16 cs nopw 0x0(%rax,%rax,1)
    891b:	00 00 00 00
    891f:	66 66 2e 0f 1f 84 00 	data16 cs nopw 0x0(%rax,%rax,1)
    8926:	00 00 00 00
    892a:	66 66 2e 0f 1f 84 00 	data16 cs nopw 0x0(%rax,%rax,1)
    8931:	00 00 00 00
    8935:	66 66 2e 0f 1f 84 00 	data16 cs nopw 0x0(%rax,%rax,1)
    893c:	00 00 00 00
    8940:	66 66 2e 0f 1f 84 00 	data16 cs nopw 0x0(%rax,%rax,1)
    8947:	00 00 00 00
    894b:	66 66 2e 0f 1f 84 00 	data16 cs nopw 0x0(%rax,%rax,1)
    8952:	00 00 00 00
    8956:	66 66 2e 0f 1f 84 00 	data16 cs nopw 0x0(%rax,%rax,1)
    895d:	00 00 00 00
    8961:	66 66 2e 0f 1f 84 00 	data16 cs nopw 0x0(%rax,%rax,1)
    8968:	00 00 00 00
    896c:	66 66 2e 0f 1f 84 00 	data16 cs nopw 0x0(%rax,%rax,1)
    8973:	00 00 00 00
    8977:	66 66 2e 0f 1f 84 00 	data16 cs nopw 0x0(%rax,%rax,1)
    897e:	00 00 00 00
    8982:	66 66 2e 0f 1f 84 00 	data16 cs nopw 0x0(%rax,%rax,1)
    8989:	00 00 00 00
    898d:	66 66 2e 0f 1f 84 00 	data16 cs nopw 0x0(%rax,%rax,1)
    8994:	00 00 00 00
    8998:	66 66 2e 0f 1f 84 00 	data16 cs nopw 0x0(%rax,%rax,1)
    899f:	00 00 00 00
    89a3:	66 66 2e 0f 1f 84 00 	data16 cs nopw 0x0(%rax,%rax,1)
    89aa:	00 00 00 00
    89ae:	66 66 2e 0f 1f 84 00 	data16 cs nopw 0x0(%rax,%rax,1)
    89b5:	00 00 00 00
    89b9:	66 66 2e 0f 1f 84 00 	data16 cs nopw 0x0(%rax,%rax,1)
    89c0:	00 00 00 00
    89c4:	66 66 2e 0f 1f 84 00 	data16 cs nopw 0x0(%rax,%rax,1)
    89cb:	00 00 00 00
    89cf:	66 66 2e 0f 1f 84 00 	data16 cs nopw 0x0(%rax,%rax,1)
    89d6:	00 00 00 00
    89da:	66 66 2e 0f 1f 84 00 	data16 cs nopw 0x0(%rax,%rax,1)
    89e1:	00 00 00 00
    89e5:	66 66 2e 0f 1f 84 00 	data16 cs nopw 0x0(%rax,%rax,1)
    89ec:	00 00 00 00
    89f0:	66 66 2e 0f 1f 84 00 	data16 cs nopw 0x0(%rax,%rax,1)
    89f7:	00 00 00 00
    89fb:	66 66 2e 0f 1f 84 00 	data16 cs nopw 0x0(%rax,%rax,1)
    8a02:	00 00 00 00
    8a06:	66 66 2e 0f 1f 84 00 	data16 cs nopw 0x0(%rax,%rax,1)
    8a0d:	00 00 00 00
    8a11:	66 66 2e 0f 1f 84 00 	data16 cs nopw 0x0(%rax,%rax,1)
    8a18:	00 00 00 00
    8a1c:	66 66 2e 0f 1f 84 00 	data16 cs nopw 0x0(%rax,%rax,1)
    8a23:	00 00 00 00
    8a27:	66 66 2e 0f 1f 84 00 	data16 cs nopw 0x0(%rax,%rax,1)
    8a2e:	00 00 00 00
    8a32:	66 66 2e 0f 1f 84 00 	data16 cs nopw 0x0(%rax,%rax,1)
    8a39:	00 00 00 00
    8a3d:	66 66 2e 0f 1f 84 00 	data16 cs nopw 0x0(%rax,%rax,1)
    8a44:	00 00 00 00
    8a48:	66 66 2e 0f 1f 84 00 	data16 cs nopw 0x0(%rax,%rax,1)
    8a4f:	00 00 00 00
    8a53:	66 66 2e 0f 1f 84 00 	data16 cs nopw 0x0(%rax,%rax,1)
    8a5a:	00 00 00 00
    8a5e:	66 66 2e 0f 1f 84 00 	data16 cs nopw 0x0(%rax,%rax,1)
    8a65:	00 00 00 00
    8a69:	66 66 2e 0f 1f 84 00 	data16 cs nopw 0x0(%rax,%rax,1)
    8a70:	00 00 00 00
    8a74:	66 66 2e 0f 1f 84 00 	data16 cs nopw 0x0(%rax,%rax,1)
    8a7b:	00 00 00 00
    8a7f:	66 66 2e 0f 1f 84 00 	data16 cs nopw 0x0(%rax,%rax,1)
    8a86:	00 00 00 00
    8a8a:	66 66 2e 0f 1f 84 00 	data16 cs nopw 0x0(%rax,%rax,1)
    8a91:	00 00 00 00
    8a95:	66 66 2e 0f 1f 84 00 	data16 cs nopw 0x0(%rax,%rax,1)
    8a9c:	00 00 00 00
    8aa0:	66 66 2e 0f 1f 84 00 	data16 cs nopw 0x0(%rax,%rax,1)
    8aa7:	00 00 00 00
    8aab:	66 66 2e 0f 1f 84 00 	data16 cs nopw 0x0(%rax,%rax,1)
    8ab2:	00 00 00 00
    8ab6:	66 66 2e 0f 1f 84 00 	data16 cs nopw 0x0(%rax,%rax,1)
    8abd:	00 00 00 00
    8ac1:	66 66 2e 0f 1f 84 00 	data16 cs nopw 0x0(%rax,%rax,1)
    8ac8:	00 00 00 00
    8acc:	66 66 2e 0f 1f 84 00 	data16 cs nopw 0x0(%rax,%rax,1)
    8ad3:	00 00 00 00
    8ad7:	66 66 2e 0f 1f 84 00 	data16 cs nopw 0x0(%rax,%rax,1)
    8ade:	00 00 00 00
    8ae2:	66 66 2e 0f 1f 84 00 	data16 cs nopw 0x0(%rax,%rax,1)
    8ae9:	00 00 00 00
    8aed:	66 66 2e 0f 1f 84 00 	data16 cs nopw 0x0(%rax,%rax,1)
    8af4:	00 00 00 00
    8af8:	66 66 2e 0f 1f 84 00 	data16 cs nopw 0x0(%rax,%rax,1)
    8aff:	00 00 00 00
    8b03:	66 66 2e 0f 1f 84 00 	data16 cs nopw 0x0(%rax,%rax,1)
    8b0a:	00 00 00 00
    8b0e:	66 66 2e 0f 1f 84 00 	data16 cs nopw 0x0(%rax,%rax,1)
    8b15:	00 00 00 00
    8b19:	66 66 2e 0f 1f 84 00 	data16 cs nopw 0x0(%rax,%rax,1)
    8b20:	00 00 00 00
    8b24:	66 66 2e 0f 1f 84 00 	data16 cs nopw 0x0(%rax,%rax,1)
    8b2b:	00 00 00 00
    8b2f:	66 66 2e 0f 1f 84 00 	data16 cs nopw 0x0(%rax,%rax,1)
    8b36:	00 00 00 00
    8b3a:	66 66 2e 0f 1f 84 00 	data16 cs nopw 0x0(%rax,%rax,1)
    8b41:	00 00 00 00
    8b45:	66 66 2e 0f 1f 84 00 	data16 cs nopw 0x0(%rax,%rax,1)
    8b4c:	00 00 00 00
    8b50:	66 66 2e 0f 1f 84 00 	data16 cs nopw 0x0(%rax,%rax,1)
    8b57:	00 00 00 00
    8b5b:	66 66 2e 0f 1f 84 00 	data16 cs nopw 0x0(%rax,%rax,1)
    8b62:	00 00 00 00
    8b66:	66 66 2e 0f 1f 84 00 	data16 cs nopw 0x0(%rax,%rax,1)
    8b6d:	00 00 00 00
    8b71:	66 66 2e 0f 1f 84 00 	data16 cs nopw 0x0(%rax,%rax,1)
    8b78:	00 00 00 00
    8b7c:	66 66 2e 0f 1f 84 00 	data16 cs nopw 0x0(%rax,%rax,1)
    8b83:	00 00 00 00
    8b87:	66 66 2e 0f 1f 84 00 	data16 cs nopw 0x0(%rax,%rax,1)
    8b8e:	00 00 00 00
    8b92:	66 66 2e 0f 1f 84 00 	data16 cs nopw 0x0(%rax,%rax,1)
    8b99:	00 00 00 00
    8b9d:	66 66 2e 0f 1f 84 00 	data16 cs nopw 0x0(%rax,%rax,1)
    8ba4:	00 00 00 00
    8ba8:	66 66 2e 0f 1f 84 00 	data16 cs nopw 0x0(%rax,%rax,1)
    8baf:	00 00 00 00
    8bb3:	66 66 2e 0f 1f 84 00 	data16 cs nopw 0x0(%rax,%rax,1)
    8bba:	00 00 00 00
    8bbe:	66 66 2e 0f 1f 84 00 	data16 cs nopw 0x0(%rax,%rax,1)
    8bc5:	00 00 00 00
    8bc9:	66 66 2e 0f 1f 84 00 	data16 cs nopw 0x0(%rax,%rax,1)
    8bd0:	00 00 00 00
    8bd4:	66 66 2e 0f 1f 84 00 	data16 cs nopw 0x0(%rax,%rax,1)
    8bdb:	00 00 00 00
    8bdf:	66 66 2e 0f 1f 84 00 	data16 cs nopw 0x0(%rax,%rax,1)
    8be6:	00 00 00 00
    8bea:	66 66 2e 0f 1f 84 00 	data16 cs nopw 0x0(%rax,%rax,1)
    8bf1:	00 00 00 00
    8bf5:	66 66 2e 0f 1f 84 00 	data16 cs nopw 0x0(%rax,%rax,1)
    8bfc:	00 00 00 00
    8c00:	66 66 2e 0f 1f 84 00 	data16 cs nopw 0x0(%rax,%rax,1)
    8c07:	00 00 00 00
    8c0b:	66 66 2e 0f 1f 84 00 	data16 cs nopw 0x0(%rax,%rax,1)
    8c12:	00 00 00 00
    8c16:	66 66 2e 0f 1f 84 00 	data16 cs nopw 0x0(%rax,%rax,1)
    8c1d:	00 00 00 00
    8c21:	66 66 2e 0f 1f 84 00 	data16 cs nopw 0x0(%rax,%rax,1)
    8c28:	00 00 00 00
    8c2c:	66 66 2e 0f 1f 84 00 	data16 cs nopw 0x0(%rax,%rax,1)
    8c33:	00 00 00 00
    8c37:	66 66 2e 0f 1f 84 00 	data16 cs nopw 0x0(%rax,%rax,1)
    8c3e:	00 00 00 00
    8c42:	66 66 2e 0f 1f 84 00 	data16 cs nopw 0x0(%rax,%rax,1)
    8c49:	00 00 00 00
    8c4d:	66 66 2e 0f 1f 84 00 	data16 cs nopw 0x0(%rax,%rax,1)
    8c54:	00 00 00 00
    8c58:	66 66 2e 0f 1f 84 00 	data16 cs nopw 0x0(%rax,%rax,1)
    8c5f:	00 00 00 00
    8c63:	66 66 2e 0f 1f 84 00 	data16 cs nopw 0x0(%rax,%rax,1)
    8c6a:	00 00 00 00
    8c6e:	66 66 2e 0f 1f 84 00 	data16 cs nopw 0x0(%rax,%rax,1)
    8c75:	00 00 00 00
    8c79:	66 66 2e 0f 1f 84 00 	data16 cs nopw 0x0(%rax,%rax,1)
    8c80:	00 00 00 00
    8c84:	66 66 2e 0f 1f 84 00 	data16 cs nopw 0x0(%rax,%rax,1)
    8c8b:	00 00 00 00
    8c8f:	66 66 2e 0f 1f 84 00 	data16 cs nopw 0x0(%rax,%rax,1)
    8c96:	00 00 00 00
    8c9a:	66 66 2e 0f 1f 84 00 	data16 cs nopw 0x0(%rax,%rax,1)
    8ca1:	00 00 00 00
    8ca5:	66 66 2e 0f 1f 84 00 	data16 cs nopw 0x0(%rax,%rax,1)
    8cac:	00 00 00 00
    8cb0:	66 66 2e 0f 1f 84 00 	data16 cs nopw 0x0(%rax,%rax,1)
    8cb7:	00 00 00 00
    8cbb:	66 66 2e 0f 1f 84 00 	data16 cs nopw 0x0(%rax,%rax,1)
    8cc2:	00 00 00 00
    8cc6:	66 66 2e 0f 1f 84 00 	data16 cs nopw 0x0(%rax,%rax,1)
    8ccd:	00 00 00 00
    8cd1:	66 66 2e 0f 1f 84 00 	data16 cs nopw 0x0(%rax,%rax,1)
    8cd8:	00 00 00 00
    8cdc:	66 66 2e 0f 1f 84 00 	data16 cs nopw 0x0(%rax,%rax,1)
    8ce3:	00 00 00 00
    8ce7:	66 66 2e 0f 1f 84 00 	data16 cs nopw 0x0(%rax,%rax,1)
    8cee:	00 00 00 00
    8cf2:	66 66 2e 0f 1f 84 00 	data16 cs nopw 0x0(%rax,%rax,1)
    8cf9:	00 00 00 00
    8cfd:	66 66 2e 0f 1f 84 00 	data16 cs nopw 0x0(%rax,%rax,1)
    8d04:	00 00 00 00
    8d08:	66 66 2e 0f 1f 84 00 	data16 cs nopw 0x0(%rax,%rax,1)
    8d0f:	00 00 00 00
    8d13:	66 66 2e 0f 1f 84 00 	data16 cs nopw 0x0(%rax,%rax,1)
    8d1a:	00 00 00 00
    8d1e:	66 66 2e 0f 1f 84 00 	data16 cs nopw 0x0(%rax,%rax,1)
    8d25:	00 00 00 00
    8d29:	66 66 2e 0f 1f 84 00 	data16 cs nopw 0x0(%rax,%rax,1)
    8d30:	00 00 00 00
    8d34:	66 66 2e 0f 1f 84 00 	data16 cs nopw 0x0(%rax,%rax,1)
    8d3b:	00 00 00 00
    8d3f:	66 66 2e 0f 1f 84 00 	data16 cs nopw 0x0(%rax,%rax,1)
    8d46:	00 00 00 00
    8d4a:	66 66 2e 0f 1f 84 00 	data16 cs nopw 0x0(%rax,%rax,1)
    8d51:	00 00 00 00
    8d55:	66 66 2e 0f 1f 84 00 	data16 cs nopw 0x0(%rax,%rax,1)
    8d5c:	00 00 00 00
    8d60:	66 66 2e 0f 1f 84 00 	data16 cs nopw 0x0(%rax,%rax,1)
    8d67:	00 00 00 00
    8d6b:	66 66 2e 0f 1f 84 00 	data16 cs nopw 0x0(%rax,%rax,1)
    8d72:	00 00 00 00
    8d76:	66 66 2e 0f 1f 84 00 	data16 cs nopw 0x0(%rax,%rax,1)
    8d7d:	00 00 00 00
    8d81:	66 66 2e 0f 1f 84 00 	data16 cs nopw 0x0(%rax,%rax,1)
    8d88:	00 00 00 00
    8d8c:	66 66 2e 0f 1f 84 00 	data16 cs nopw 0x0(%rax,%rax,1)
    8d93:	00 00 00 00
    8d97:	66 66 2e 0f 1f 84 00 	data16 cs nopw 0x0(%rax,%rax,1)
    8d9e:	00 00 00 00
    8da2:	66 66 2e 0f 1f 84 00 	data16 cs nopw 0x0(%rax,%rax,1)
    8da9:	00 00 00 00
    8dad:	66 66 2e 0f 1f 84 00 	data16 cs nopw 0x0(%rax,%rax,1)
    8db4:	00 00 00 00
    8db8:	66 66 2e 0f 1f 84 00 	data16 cs nopw 0x0(%rax,%rax,1)
    8dbf:	00 00 00 00
    8dc3:	66 66 2e 0f 1f 84 00 	data16 cs nopw 0x0(%rax,%rax,1)
    8dca:	00 00 00 00
    8dce:	66 66 2e 0f 1f 84 00 	data16 cs nopw 0x0(%rax,%rax,1)
    8dd5:	00 00 00 00
    8dd9:	66 66 2e 0f 1f 84 00 	data16 cs nopw 0x0(%rax,%rax,1)
    8de0:	00 00 00 00
    8de4:	66 66 2e 0f 1f 84 00 	data16 cs nopw 0x0(%rax,%rax,1)
    8deb:	00 00 00 00
    8def:	66 66 2e 0f 1f 84 00 	data16 cs nopw 0x0(%rax,%rax,1)
    8df6:	00 00 00 00
    8dfa:	66 66 2e 0f 1f 84 00 	data16 cs nopw 0x0(%rax,%rax,1)
    8e01:	00 00 00 00
    8e05:	66 66 2e 0f 1f 84 00 	data16 cs nopw 0x0(%rax,%rax,1)
    8e0c:	00 00 00 00
    8e10:	66 66 2e 0f 1f 84 00 	data16 cs nopw 0x0(%rax,%rax,1)
    8e17:	00 00 00 00
    8e1b:	66 66 2e 0f 1f 84 00 	data16 cs nopw 0x0(%rax,%rax,1)
    8e22:	00 00 00 00
    8e26:	66 66 2e 0f 1f 84 00 	data16 cs nopw 0x0(%rax,%rax,1)
    8e2d:	00 00 00 00
    8e31:	66 66 2e 0f 1f 84 00 	data16 cs nopw 0x0(%rax,%rax,1)
    8e38:	00 00 00 00
    8e3c:	66 66 2e 0f 1f 84 00 	data16 cs nopw 0x0(%rax,%rax,1)
    8e43:	00 00 00 00
    8e47:	66 66 2e 0f 1f 84 00 	data16 cs nopw 0x0(%rax,%rax,1)
    8e4e:	00 00 00 00
    8e52:	66 66 2e 0f 1f 84 00 	data16 cs nopw 0x0(%rax,%rax,1)
    8e59:	00 00 00 00
    8e5d:	66 66 2e 0f 1f 84 00 	data16 cs nopw 0x0(%rax,%rax,1)
    8e64:	00 00 00 00
    8e68:	66 66 2e 0f 1f 84 00 	data16 cs nopw 0x0(%rax,%rax,1)
    8e6f:	00 00 00 00
    8e73:	66 66 2e 0f 1f 84 00 	data16 cs nopw 0x0(%rax,%rax,1)
    8e7a:	00 00 00 00
    8e7e:	66 66 2e 0f 1f 84 00 	data16 cs nopw 0x0(%rax,%rax,1)
    8e85:	00 00 00 00
    8e89:	66 66 2e 0f 1f 84 00 	data16 cs nopw 0x0(%rax,%rax,1)
    8e90:	00 00 00 00
    8e94:	66 66 2e 0f 1f 84 00 	data16 cs nopw 0x0(%rax,%rax,1)
    8e9b:	00 00 00 00
    8e9f:	66 66 2e 0f 1f 84 00 	data16 cs nopw 0x0(%rax,%rax,1)
    8ea6:	00 00 00 00
    8eaa:	66 66 2e 0f 1f 84 00 	data16 cs nopw 0x0(%rax,%rax,1)
    8eb1:	00 00 00 00
    8eb5:	66 66 2e 0f 1f 84 00 	data16 cs nopw 0x0(%rax,%rax,1)
    8ebc:	00 00 00 00
    8ec0:	66 66 2e 0f 1f 84 00 	data16 cs nopw 0x0(%rax,%rax,1)
    8ec7:	00 00 00 00
    8ecb:	66 66 2e 0f 1f 84 00 	data16 cs nopw 0x0(%rax,%rax,1)
    8ed2:	00 00 00 00
    8ed6:	66 66 2e 0f 1f 84 00 	data16 cs nopw 0x0(%rax,%rax,1)
    8edd:	00 00 00 00
    8ee1:	66 66 2e 0f 1f 84 00 	data16 cs nopw 0x0(%rax,%rax,1)
    8ee8:	00 00 00 00
    8eec:	66 66 2e 0f 1f 84 00 	data16 cs nopw 0x0(%rax,%rax,1)
    8ef3:	00 00 00 00
    8ef7:	66 66 2e 0f 1f 84 00 	data16 cs nopw 0x0(%rax,%rax,1)
    8efe:	00 00 00 00
    8f02:	66 66 2e 0f 1f 84 00 	data16 cs nopw 0x0(%rax,%rax,1)
    8f09:	00 00 00 00
    8f0d:	66 66 2e 0f 1f 84 00 	data16 cs nopw 0x0(%rax,%rax,1)
    8f14:	00 00 00 00
    8f18:	66 66 2e 0f 1f 84 00 	data16 cs nopw 0x0(%rax,%rax,1)
    8f1f:	00 00 00 00
    8f23:	66 66 2e 0f 1f 84 00 	data16 cs nopw 0x0(%rax,%rax,1)
    8f2a:	00 00 00 00
    8f2e:	66 66 2e 0f 1f 84 00 	data16 cs nopw 0x0(%rax,%rax,1)
    8f35:	00 00 00 00
    8f39:	66 66 2e 0f 1f 84 00 	data16 cs nopw 0x0(%rax,%rax,1)
    8f40:	00 00 00 00
    8f44:	66 66 2e 0f 1f 84 00 	data16 cs nopw 0x0(%rax,%rax,1)
    8f4b:	00 00 00 00
    8f4f:	66 66 2e 0f 1f 84 00 	data16 cs nopw 0x0(%rax,%rax,1)
    8f56:	00 00 00 00
    8f5a:	66 66 2e 0f 1f 84 00 	data16 cs nopw 0x0(%rax,%rax,1)
    8f61:	00 00 00 00
    8f65:	66 66 2e 0f 1f 84 00 	data16 cs nopw 0x0(%rax,%rax,1)
    8f6c:	00 00 00 00
    8f70:	66 66 2e 0f 1f 84 00 	data16 cs nopw 0x0(%rax,%rax,1)
    8f77:	00 00 00 00
    8f7b:	66 66 2e 0f 1f 84 00 	data16 cs nopw 0x0(%rax,%rax,1)
    8f82:	00 00 00 00
    8f86:	66 66 2e 0f 1f 84 00 	data16 cs nopw 0x0(%rax,%rax,1)
    8f8d:	00 00 00 00
    8f91:	66 66 2e 0f 1f 84 00 	data16 cs nopw 0x0(%rax,%rax,1)
    8f98:	00 00 00 00
    8f9c:	66 66 2e 0f 1f 84 00 	data16 cs nopw 0x0(%rax,%rax,1)
    8fa3:	00 00 00 00
    8fa7:	66 66 2e 0f 1f 84 00 	data16 cs nopw 0x0(%rax,%rax,1)
    8fae:	00 00 00 00
    8fb2:	66 66 2e 0f 1f 84 00 	data16 cs nopw 0x0(%rax,%rax,1)
    8fb9:	00 00 00 00
    8fbd:	66 66 2e 0f 1f 84 00 	data16 cs nopw 0x0(%rax,%rax,1)
    8fc4:	00 00 00 00
    8fc8:	66 66 2e 0f 1f 84 00 	data16 cs nopw 0x0(%rax,%rax,1)
    8fcf:	00 00 00 00
    8fd3:	66 66 2e 0f 1f 84 00 	data16 cs nopw 0x0(%rax,%rax,1)
    8fda:	00 00 00 00
    8fde:	66 66 2e 0f 1f 84 00 	data16 cs nopw 0x0(%rax,%rax,1)
    8fe5:	00 00 00 00
    8fe9:	66 66 2e 0f 1f 84 00 	data16 cs nopw 0x0(%rax,%rax,1)
    8ff0:	00 00 00 00
    8ff4:	66 66 2e 0f 1f 84 00 	data16 cs nopw 0x0(%rax,%rax,1)
    8ffb:	00 00 00 00
    8fff:	90                   	nop

0000000000009000 <pml4>:
    9000:	03 a0 00 00 00 00    	add    0x0(%rax),%esp
    9006:	00 00                	add    %al,(%rax)
    9008:	90                   	nop
    9009:	e9 f2 0f 00 00       	jmp    a000 <pdpt>
    900e:	66 66 2e 0f 1f 84 00 	data16 cs nopw 0x0(%rax,%rax,1)
    9015:	00 00 00 00
    9019:	66 66 2e 0f 1f 84 00 	data16 cs nopw 0x0(%rax,%rax,1)
    9020:	00 00 00 00
    9024:	66 66 2e 0f 1f 84 00 	data16 cs nopw 0x0(%rax,%rax,1)
    902b:	00 00 00 00
    902f:	66 66 2e 0f 1f 84 00 	data16 cs nopw 0x0(%rax,%rax,1)
    9036:	00 00 00 00
    903a:	66 66 2e 0f 1f 84 00 	data16 cs nopw 0x0(%rax,%rax,1)
    9041:	00 00 00 00
    9045:	66 66 2e 0f 1f 84 00 	data16 cs nopw 0x0(%rax,%rax,1)
    904c:	00 00 00 00
    9050:	66 66 2e 0f 1f 84 00 	data16 cs nopw 0x0(%rax,%rax,1)
    9057:	00 00 00 00
    905b:	66 66 2e 0f 1f 84 00 	data16 cs nopw 0x0(%rax,%rax,1)
    9062:	00 00 00 00
    9066:	66 66 2e 0f 1f 84 00 	data16 cs nopw 0x0(%rax,%rax,1)
    906d:	00 00 00 00
    9071:	66 66 2e 0f 1f 84 00 	data16 cs nopw 0x0(%rax,%rax,1)
    9078:	00 00 00 00
    907c:	66 66 2e 0f 1f 84 00 	data16 cs nopw 0x0(%rax,%rax,1)
    9083:	00 00 00 00
    9087:	66 66 2e 0f 1f 84 00 	data16 cs nopw 0x0(%rax,%rax,1)
    908e:	00 00 00 00
    9092:	66 66 2e 0f 1f 84 00 	data16 cs nopw 0x0(%rax,%rax,1)
    9099:	00 00 00 00
    909d:	66 66 2e 0f 1f 84 00 	data16 cs nopw 0x0(%rax,%rax,1)
    90a4:	00 00 00 00
    90a8:	66 66 2e 0f 1f 84 00 	data16 cs nopw 0x0(%rax,%rax,1)
    90af:	00 00 00 00
    90b3:	66 66 2e 0f 1f 84 00 	data16 cs nopw 0x0(%rax,%rax,1)
    90ba:	00 00 00 00
    90be:	66 66 2e 0f 1f 84 00 	data16 cs nopw 0x0(%rax,%rax,1)
    90c5:	00 00 00 00
    90c9:	66 66 2e 0f 1f 84 00 	data16 cs nopw 0x0(%rax,%rax,1)
    90d0:	00 00 00 00
    90d4:	66 66 2e 0f 1f 84 00 	data16 cs nopw 0x0(%rax,%rax,1)
    90db:	00 00 00 00
    90df:	66 66 2e 0f 1f 84 00 	data16 cs nopw 0x0(%rax,%rax,1)
    90e6:	00 00 00 00
    90ea:	66 66 2e 0f 1f 84 00 	data16 cs nopw 0x0(%rax,%rax,1)
    90f1:	00 00 00 00
    90f5:	66 66 2e 0f 1f 84 00 	data16 cs nopw 0x0(%rax,%rax,1)
    90fc:	00 00 00 00
    9100:	66 66 2e 0f 1f 84 00 	data16 cs nopw 0x0(%rax,%rax,1)
    9107:	00 00 00 00
    910b:	66 66 2e 0f 1f 84 00 	data16 cs nopw 0x0(%rax,%rax,1)
    9112:	00 00 00 00
    9116:	66 66 2e 0f 1f 84 00 	data16 cs nopw 0x0(%rax,%rax,1)
    911d:	00 00 00 00
    9121:	66 66 2e 0f 1f 84 00 	data16 cs nopw 0x0(%rax,%rax,1)
    9128:	00 00 00 00
    912c:	66 66 2e 0f 1f 84 00 	data16 cs nopw 0x0(%rax,%rax,1)
    9133:	00 00 00 00
    9137:	66 66 2e 0f 1f 84 00 	data16 cs nopw 0x0(%rax,%rax,1)
    913e:	00 00 00 00
    9142:	66 66 2e 0f 1f 84 00 	data16 cs nopw 0x0(%rax,%rax,1)
    9149:	00 00 00 00
    914d:	66 66 2e 0f 1f 84 00 	data16 cs nopw 0x0(%rax,%rax,1)
    9154:	00 00 00 00
    9158:	66 66 2e 0f 1f 84 00 	data16 cs nopw 0x0(%rax,%rax,1)
    915f:	00 00 00 00
    9163:	66 66 2e 0f 1f 84 00 	data16 cs nopw 0x0(%rax,%rax,1)
    916a:	00 00 00 00
    916e:	66 66 2e 0f 1f 84 00 	data16 cs nopw 0x0(%rax,%rax,1)
    9175:	00 00 00 00
    9179:	66 66 2e 0f 1f 84 00 	data16 cs nopw 0x0(%rax,%rax,1)
    9180:	00 00 00 00
    9184:	66 66 2e 0f 1f 84 00 	data16 cs nopw 0x0(%rax,%rax,1)
    918b:	00 00 00 00
    918f:	66 66 2e 0f 1f 84 00 	data16 cs nopw 0x0(%rax,%rax,1)
    9196:	00 00 00 00
    919a:	66 66 2e 0f 1f 84 00 	data16 cs nopw 0x0(%rax,%rax,1)
    91a1:	00 00 00 00
    91a5:	66 66 2e 0f 1f 84 00 	data16 cs nopw 0x0(%rax,%rax,1)
    91ac:	00 00 00 00
    91b0:	66 66 2e 0f 1f 84 00 	data16 cs nopw 0x0(%rax,%rax,1)
    91b7:	00 00 00 00
    91bb:	66 66 2e 0f 1f 84 00 	data16 cs nopw 0x0(%rax,%rax,1)
    91c2:	00 00 00 00
    91c6:	66 66 2e 0f 1f 84 00 	data16 cs nopw 0x0(%rax,%rax,1)
    91cd:	00 00 00 00
    91d1:	66 66 2e 0f 1f 84 00 	data16 cs nopw 0x0(%rax,%rax,1)
    91d8:	00 00 00 00
    91dc:	66 66 2e 0f 1f 84 00 	data16 cs nopw 0x0(%rax,%rax,1)
    91e3:	00 00 00 00
    91e7:	66 66 2e 0f 1f 84 00 	data16 cs nopw 0x0(%rax,%rax,1)
    91ee:	00 00 00 00
    91f2:	66 66 2e 0f 1f 84 00 	data16 cs nopw 0x0(%rax,%rax,1)
    91f9:	00 00 00 00
    91fd:	66 66 2e 0f 1f 84 00 	data16 cs nopw 0x0(%rax,%rax,1)
    9204:	00 00 00 00
    9208:	66 66 2e 0f 1f 84 00 	data16 cs nopw 0x0(%rax,%rax,1)
    920f:	00 00 00 00
    9213:	66 66 2e 0f 1f 84 00 	data16 cs nopw 0x0(%rax,%rax,1)
    921a:	00 00 00 00
    921e:	66 66 2e 0f 1f 84 00 	data16 cs nopw 0x0(%rax,%rax,1)
    9225:	00 00 00 00
    9229:	66 66 2e 0f 1f 84 00 	data16 cs nopw 0x0(%rax,%rax,1)
    9230:	00 00 00 00
    9234:	66 66 2e 0f 1f 84 00 	data16 cs nopw 0x0(%rax,%rax,1)
    923b:	00 00 00 00
    923f:	66 66 2e 0f 1f 84 00 	data16 cs nopw 0x0(%rax,%rax,1)
    9246:	00 00 00 00
    924a:	66 66 2e 0f 1f 84 00 	data16 cs nopw 0x0(%rax,%rax,1)
    9251:	00 00 00 00
    9255:	66 66 2e 0f 1f 84 00 	data16 cs nopw 0x0(%rax,%rax,1)
    925c:	00 00 00 00
    9260:	66 66 2e 0f 1f 84 00 	data16 cs nopw 0x0(%rax,%rax,1)
    9267:	00 00 00 00
    926b:	66 66 2e 0f 1f 84 00 	data16 cs nopw 0x0(%rax,%rax,1)
    9272:	00 00 00 00
    9276:	66 66 2e 0f 1f 84 00 	data16 cs nopw 0x0(%rax,%rax,1)
    927d:	00 00 00 00
    9281:	66 66 2e 0f 1f 84 00 	data16 cs nopw 0x0(%rax,%rax,1)
    9288:	00 00 00 00
    928c:	66 66 2e 0f 1f 84 00 	data16 cs nopw 0x0(%rax,%rax,1)
    9293:	00 00 00 00
    9297:	66 66 2e 0f 1f 84 00 	data16 cs nopw 0x0(%rax,%rax,1)
    929e:	00 00 00 00
    92a2:	66 66 2e 0f 1f 84 00 	data16 cs nopw 0x0(%rax,%rax,1)
    92a9:	00 00 00 00
    92ad:	66 66 2e 0f 1f 84 00 	data16 cs nopw 0x0(%rax,%rax,1)
    92b4:	00 00 00 00
    92b8:	66 66 2e 0f 1f 84 00 	data16 cs nopw 0x0(%rax,%rax,1)
    92bf:	00 00 00 00
    92c3:	66 66 2e 0f 1f 84 00 	data16 cs nopw 0x0(%rax,%rax,1)
    92ca:	00 00 00 00
    92ce:	66 66 2e 0f 1f 84 00 	data16 cs nopw 0x0(%rax,%rax,1)
    92d5:	00 00 00 00
    92d9:	66 66 2e 0f 1f 84 00 	data16 cs nopw 0x0(%rax,%rax,1)
    92e0:	00 00 00 00
    92e4:	66 66 2e 0f 1f 84 00 	data16 cs nopw 0x0(%rax,%rax,1)
    92eb:	00 00 00 00
    92ef:	66 66 2e 0f 1f 84 00 	data16 cs nopw 0x0(%rax,%rax,1)
    92f6:	00 00 00 00
    92fa:	66 66 2e 0f 1f 84 00 	data16 cs nopw 0x0(%rax,%rax,1)
    9301:	00 00 00 00
    9305:	66 66 2e 0f 1f 84 00 	data16 cs nopw 0x0(%rax,%rax,1)
    930c:	00 00 00 00
    9310:	66 66 2e 0f 1f 84 00 	data16 cs nopw 0x0(%rax,%rax,1)
    9317:	00 00 00 00
    931b:	66 66 2e 0f 1f 84 00 	data16 cs nopw 0x0(%rax,%rax,1)
    9322:	00 00 00 00
    9326:	66 66 2e 0f 1f 84 00 	data16 cs nopw 0x0(%rax,%rax,1)
    932d:	00 00 00 00
    9331:	66 66 2e 0f 1f 84 00 	data16 cs nopw 0x0(%rax,%rax,1)
    9338:	00 00 00 00
    933c:	66 66 2e 0f 1f 84 00 	data16 cs nopw 0x0(%rax,%rax,1)
    9343:	00 00 00 00
    9347:	66 66 2e 0f 1f 84 00 	data16 cs nopw 0x0(%rax,%rax,1)
    934e:	00 00 00 00
    9352:	66 66 2e 0f 1f 84 00 	data16 cs nopw 0x0(%rax,%rax,1)
    9359:	00 00 00 00
    935d:	66 66 2e 0f 1f 84 00 	data16 cs nopw 0x0(%rax,%rax,1)
    9364:	00 00 00 00
    9368:	66 66 2e 0f 1f 84 00 	data16 cs nopw 0x0(%rax,%rax,1)
    936f:	00 00 00 00
    9373:	66 66 2e 0f 1f 84 00 	data16 cs nopw 0x0(%rax,%rax,1)
    937a:	00 00 00 00
    937e:	66 66 2e 0f 1f 84 00 	data16 cs nopw 0x0(%rax,%rax,1)
    9385:	00 00 00 00
    9389:	66 66 2e 0f 1f 84 00 	data16 cs nopw 0x0(%rax,%rax,1)
    9390:	00 00 00 00
    9394:	66 66 2e 0f 1f 84 00 	data16 cs nopw 0x0(%rax,%rax,1)
    939b:	00 00 00 00
    939f:	66 66 2e 0f 1f 84 00 	data16 cs nopw 0x0(%rax,%rax,1)
    93a6:	00 00 00 00
    93aa:	66 66 2e 0f 1f 84 00 	data16 cs nopw 0x0(%rax,%rax,1)
    93b1:	00 00 00 00
    93b5:	66 66 2e 0f 1f 84 00 	data16 cs nopw 0x0(%rax,%rax,1)
    93bc:	00 00 00 00
    93c0:	66 66 2e 0f 1f 84 00 	data16 cs nopw 0x0(%rax,%rax,1)
    93c7:	00 00 00 00
    93cb:	66 66 2e 0f 1f 84 00 	data16 cs nopw 0x0(%rax,%rax,1)
    93d2:	00 00 00 00
    93d6:	66 66 2e 0f 1f 84 00 	data16 cs nopw 0x0(%rax,%rax,1)
    93dd:	00 00 00 00
    93e1:	66 66 2e 0f 1f 84 00 	data16 cs nopw 0x0(%rax,%rax,1)
    93e8:	00 00 00 00
    93ec:	66 66 2e 0f 1f 84 00 	data16 cs nopw 0x0(%rax,%rax,1)
    93f3:	00 00 00 00
    93f7:	66 66 2e 0f 1f 84 00 	data16 cs nopw 0x0(%rax,%rax,1)
    93fe:	00 00 00 00
    9402:	66 66 2e 0f 1f 84 00 	data16 cs nopw 0x0(%rax,%rax,1)
    9409:	00 00 00 00
    940d:	66 66 2e 0f 1f 84 00 	data16 cs nopw 0x0(%rax,%rax,1)
    9414:	00 00 00 00
    9418:	66 66 2e 0f 1f 84 00 	data16 cs nopw 0x0(%rax,%rax,1)
    941f:	00 00 00 00
    9423:	66 66 2e 0f 1f 84 00 	data16 cs nopw 0x0(%rax,%rax,1)
    942a:	00 00 00 00
    942e:	66 66 2e 0f 1f 84 00 	data16 cs nopw 0x0(%rax,%rax,1)
    9435:	00 00 00 00
    9439:	66 66 2e 0f 1f 84 00 	data16 cs nopw 0x0(%rax,%rax,1)
    9440:	00 00 00 00
    9444:	66 66 2e 0f 1f 84 00 	data16 cs nopw 0x0(%rax,%rax,1)
    944b:	00 00 00 00
    944f:	66 66 2e 0f 1f 84 00 	data16 cs nopw 0x0(%rax,%rax,1)
    9456:	00 00 00 00
    945a:	66 66 2e 0f 1f 84 00 	data16 cs nopw 0x0(%rax,%rax,1)
    9461:	00 00 00 00
    9465:	66 66 2e 0f 1f 84 00 	data16 cs nopw 0x0(%rax,%rax,1)
    946c:	00 00 00 00
    9470:	66 66 2e 0f 1f 84 00 	data16 cs nopw 0x0(%rax,%rax,1)
    9477:	00 00 00 00
    947b:	66 66 2e 0f 1f 84 00 	data16 cs nopw 0x0(%rax,%rax,1)
    9482:	00 00 00 00
    9486:	66 66 2e 0f 1f 84 00 	data16 cs nopw 0x0(%rax,%rax,1)
    948d:	00 00 00 00
    9491:	66 66 2e 0f 1f 84 00 	data16 cs nopw 0x0(%rax,%rax,1)
    9498:	00 00 00 00
    949c:	66 66 2e 0f 1f 84 00 	data16 cs nopw 0x0(%rax,%rax,1)
    94a3:	00 00 00 00
    94a7:	66 66 2e 0f 1f 84 00 	data16 cs nopw 0x0(%rax,%rax,1)
    94ae:	00 00 00 00
    94b2:	66 66 2e 0f 1f 84 00 	data16 cs nopw 0x0(%rax,%rax,1)
    94b9:	00 00 00 00
    94bd:	66 66 2e 0f 1f 84 00 	data16 cs nopw 0x0(%rax,%rax,1)
    94c4:	00 00 00 00
    94c8:	66 66 2e 0f 1f 84 00 	data16 cs nopw 0x0(%rax,%rax,1)
    94cf:	00 00 00 00
    94d3:	66 66 2e 0f 1f 84 00 	data16 cs nopw 0x0(%rax,%rax,1)
    94da:	00 00 00 00
    94de:	66 66 2e 0f 1f 84 00 	data16 cs nopw 0x0(%rax,%rax,1)
    94e5:	00 00 00 00
    94e9:	66 66 2e 0f 1f 84 00 	data16 cs nopw 0x0(%rax,%rax,1)
    94f0:	00 00 00 00
    94f4:	66 66 2e 0f 1f 84 00 	data16 cs nopw 0x0(%rax,%rax,1)
    94fb:	00 00 00 00
    94ff:	66 66 2e 0f 1f 84 00 	data16 cs nopw 0x0(%rax,%rax,1)
    9506:	00 00 00 00
    950a:	66 66 2e 0f 1f 84 00 	data16 cs nopw 0x0(%rax,%rax,1)
    9511:	00 00 00 00
    9515:	66 66 2e 0f 1f 84 00 	data16 cs nopw 0x0(%rax,%rax,1)
    951c:	00 00 00 00
    9520:	66 66 2e 0f 1f 84 00 	data16 cs nopw 0x0(%rax,%rax,1)
    9527:	00 00 00 00
    952b:	66 66 2e 0f 1f 84 00 	data16 cs nopw 0x0(%rax,%rax,1)
    9532:	00 00 00 00
    9536:	66 66 2e 0f 1f 84 00 	data16 cs nopw 0x0(%rax,%rax,1)
    953d:	00 00 00 00
    9541:	66 66 2e 0f 1f 84 00 	data16 cs nopw 0x0(%rax,%rax,1)
    9548:	00 00 00 00
    954c:	66 66 2e 0f 1f 84 00 	data16 cs nopw 0x0(%rax,%rax,1)
    9553:	00 00 00 00
    9557:	66 66 2e 0f 1f 84 00 	data16 cs nopw 0x0(%rax,%rax,1)
    955e:	00 00 00 00
    9562:	66 66 2e 0f 1f 84 00 	data16 cs nopw 0x0(%rax,%rax,1)
    9569:	00 00 00 00
    956d:	66 66 2e 0f 1f 84 00 	data16 cs nopw 0x0(%rax,%rax,1)
    9574:	00 00 00 00
    9578:	66 66 2e 0f 1f 84 00 	data16 cs nopw 0x0(%rax,%rax,1)
    957f:	00 00 00 00
    9583:	66 66 2e 0f 1f 84 00 	data16 cs nopw 0x0(%rax,%rax,1)
    958a:	00 00 00 00
    958e:	66 66 2e 0f 1f 84 00 	data16 cs nopw 0x0(%rax,%rax,1)
    9595:	00 00 00 00
    9599:	66 66 2e 0f 1f 84 00 	data16 cs nopw 0x0(%rax,%rax,1)
    95a0:	00 00 00 00
    95a4:	66 66 2e 0f 1f 84 00 	data16 cs nopw 0x0(%rax,%rax,1)
    95ab:	00 00 00 00
    95af:	66 66 2e 0f 1f 84 00 	data16 cs nopw 0x0(%rax,%rax,1)
    95b6:	00 00 00 00
    95ba:	66 66 2e 0f 1f 84 00 	data16 cs nopw 0x0(%rax,%rax,1)
    95c1:	00 00 00 00
    95c5:	66 66 2e 0f 1f 84 00 	data16 cs nopw 0x0(%rax,%rax,1)
    95cc:	00 00 00 00
    95d0:	66 66 2e 0f 1f 84 00 	data16 cs nopw 0x0(%rax,%rax,1)
    95d7:	00 00 00 00
    95db:	66 66 2e 0f 1f 84 00 	data16 cs nopw 0x0(%rax,%rax,1)
    95e2:	00 00 00 00
    95e6:	66 66 2e 0f 1f 84 00 	data16 cs nopw 0x0(%rax,%rax,1)
    95ed:	00 00 00 00
    95f1:	66 66 2e 0f 1f 84 00 	data16 cs nopw 0x0(%rax,%rax,1)
    95f8:	00 00 00 00
    95fc:	66 66 2e 0f 1f 84 00 	data16 cs nopw 0x0(%rax,%rax,1)
    9603:	00 00 00 00
    9607:	66 66 2e 0f 1f 84 00 	data16 cs nopw 0x0(%rax,%rax,1)
    960e:	00 00 00 00
    9612:	66 66 2e 0f 1f 84 00 	data16 cs nopw 0x0(%rax,%rax,1)
    9619:	00 00 00 00
    961d:	66 66 2e 0f 1f 84 00 	data16 cs nopw 0x0(%rax,%rax,1)
    9624:	00 00 00 00
    9628:	66 66 2e 0f 1f 84 00 	data16 cs nopw 0x0(%rax,%rax,1)
    962f:	00 00 00 00
    9633:	66 66 2e 0f 1f 84 00 	data16 cs nopw 0x0(%rax,%rax,1)
    963a:	00 00 00 00
    963e:	66 66 2e 0f 1f 84 00 	data16 cs nopw 0x0(%rax,%rax,1)
    9645:	00 00 00 00
    9649:	66 66 2e 0f 1f 84 00 	data16 cs nopw 0x0(%rax,%rax,1)
    9650:	00 00 00 00
    9654:	66 66 2e 0f 1f 84 00 	data16 cs nopw 0x0(%rax,%rax,1)
    965b:	00 00 00 00
    965f:	66 66 2e 0f 1f 84 00 	data16 cs nopw 0x0(%rax,%rax,1)
    9666:	00 00 00 00
    966a:	66 66 2e 0f 1f 84 00 	data16 cs nopw 0x0(%rax,%rax,1)
    9671:	00 00 00 00
    9675:	66 66 2e 0f 1f 84 00 	data16 cs nopw 0x0(%rax,%rax,1)
    967c:	00 00 00 00
    9680:	66 66 2e 0f 1f 84 00 	data16 cs nopw 0x0(%rax,%rax,1)
    9687:	00 00 00 00
    968b:	66 66 2e 0f 1f 84 00 	data16 cs nopw 0x0(%rax,%rax,1)
    9692:	00 00 00 00
    9696:	66 66 2e 0f 1f 84 00 	data16 cs nopw 0x0(%rax,%rax,1)
    969d:	00 00 00 00
    96a1:	66 66 2e 0f 1f 84 00 	data16 cs nopw 0x0(%rax,%rax,1)
    96a8:	00 00 00 00
    96ac:	66 66 2e 0f 1f 84 00 	data16 cs nopw 0x0(%rax,%rax,1)
    96b3:	00 00 00 00
    96b7:	66 66 2e 0f 1f 84 00 	data16 cs nopw 0x0(%rax,%rax,1)
    96be:	00 00 00 00
    96c2:	66 66 2e 0f 1f 84 00 	data16 cs nopw 0x0(%rax,%rax,1)
    96c9:	00 00 00 00
    96cd:	66 66 2e 0f 1f 84 00 	data16 cs nopw 0x0(%rax,%rax,1)
    96d4:	00 00 00 00
    96d8:	66 66 2e 0f 1f 84 00 	data16 cs nopw 0x0(%rax,%rax,1)
    96df:	00 00 00 00
    96e3:	66 66 2e 0f 1f 84 00 	data16 cs nopw 0x0(%rax,%rax,1)
    96ea:	00 00 00 00
    96ee:	66 66 2e 0f 1f 84 00 	data16 cs nopw 0x0(%rax,%rax,1)
    96f5:	00 00 00 00
    96f9:	66 66 2e 0f 1f 84 00 	data16 cs nopw 0x0(%rax,%rax,1)
    9700:	00 00 00 00
    9704:	66 66 2e 0f 1f 84 00 	data16 cs nopw 0x0(%rax,%rax,1)
    970b:	00 00 00 00
    970f:	66 66 2e 0f 1f 84 00 	data16 cs nopw 0x0(%rax,%rax,1)
    9716:	00 00 00 00
    971a:	66 66 2e 0f 1f 84 00 	data16 cs nopw 0x0(%rax,%rax,1)
    9721:	00 00 00 00
    9725:	66 66 2e 0f 1f 84 00 	data16 cs nopw 0x0(%rax,%rax,1)
    972c:	00 00 00 00
    9730:	66 66 2e 0f 1f 84 00 	data16 cs nopw 0x0(%rax,%rax,1)
    9737:	00 00 00 00
    973b:	66 66 2e 0f 1f 84 00 	data16 cs nopw 0x0(%rax,%rax,1)
    9742:	00 00 00 00
    9746:	66 66 2e 0f 1f 84 00 	data16 cs nopw 0x0(%rax,%rax,1)
    974d:	00 00 00 00
    9751:	66 66 2e 0f 1f 84 00 	data16 cs nopw 0x0(%rax,%rax,1)
    9758:	00 00 00 00
    975c:	66 66 2e 0f 1f 84 00 	data16 cs nopw 0x0(%rax,%rax,1)
    9763:	00 00 00 00
    9767:	66 66 2e 0f 1f 84 00 	data16 cs nopw 0x0(%rax,%rax,1)
    976e:	00 00 00 00
    9772:	66 66 2e 0f 1f 84 00 	data16 cs nopw 0x0(%rax,%rax,1)
    9779:	00 00 00 00
    977d:	66 66 2e 0f 1f 84 00 	data16 cs nopw 0x0(%rax,%rax,1)
    9784:	00 00 00 00
    9788:	66 66 2e 0f 1f 84 00 	data16 cs nopw 0x0(%rax,%rax,1)
    978f:	00 00 00 00
    9793:	66 66 2e 0f 1f 84 00 	data16 cs nopw 0x0(%rax,%rax,1)
    979a:	00 00 00 00
    979e:	66 66 2e 0f 1f 84 00 	data16 cs nopw 0x0(%rax,%rax,1)
    97a5:	00 00 00 00
    97a9:	66 66 2e 0f 1f 84 00 	data16 cs nopw 0x0(%rax,%rax,1)
    97b0:	00 00 00 00
    97b4:	66 66 2e 0f 1f 84 00 	data16 cs nopw 0x0(%rax,%rax,1)
    97bb:	00 00 00 00
    97bf:	66 66 2e 0f 1f 84 00 	data16 cs nopw 0x0(%rax,%rax,1)
    97c6:	00 00 00 00
    97ca:	66 66 2e 0f 1f 84 00 	data16 cs nopw 0x0(%rax,%rax,1)
    97d1:	00 00 00 00
    97d5:	66 66 2e 0f 1f 84 00 	data16 cs nopw 0x0(%rax,%rax,1)
    97dc:	00 00 00 00
    97e0:	66 66 2e 0f 1f 84 00 	data16 cs nopw 0x0(%rax,%rax,1)
    97e7:	00 00 00 00
    97eb:	66 66 2e 0f 1f 84 00 	data16 cs nopw 0x0(%rax,%rax,1)
    97f2:	00 00 00 00
    97f6:	66 66 2e 0f 1f 84 00 	data16 cs nopw 0x0(%rax,%rax,1)
    97fd:	00 00 00 00
    9801:	66 66 2e 0f 1f 84 00 	data16 cs nopw 0x0(%rax,%rax,1)
    9808:	00 00 00 00
    980c:	66 66 2e 0f 1f 84 00 	data16 cs nopw 0x0(%rax,%rax,1)
    9813:	00 00 00 00
    9817:	66 66 2e 0f 1f 84 00 	data16 cs nopw 0x0(%rax,%rax,1)
    981e:	00 00 00 00
    9822:	66 66 2e 0f 1f 84 00 	data16 cs nopw 0x0(%rax,%rax,1)
    9829:	00 00 00 00
    982d:	66 66 2e 0f 1f 84 00 	data16 cs nopw 0x0(%rax,%rax,1)
    9834:	00 00 00 00
    9838:	66 66 2e 0f 1f 84 00 	data16 cs nopw 0x0(%rax,%rax,1)
    983f:	00 00 00 00
    9843:	66 66 2e 0f 1f 84 00 	data16 cs nopw 0x0(%rax,%rax,1)
    984a:	00 00 00 00
    984e:	66 66 2e 0f 1f 84 00 	data16 cs nopw 0x0(%rax,%rax,1)
    9855:	00 00 00 00
    9859:	66 66 2e 0f 1f 84 00 	data16 cs nopw 0x0(%rax,%rax,1)
    9860:	00 00 00 00
    9864:	66 66 2e 0f 1f 84 00 	data16 cs nopw 0x0(%rax,%rax,1)
    986b:	00 00 00 00
    986f:	66 66 2e 0f 1f 84 00 	data16 cs nopw 0x0(%rax,%rax,1)
    9876:	00 00 00 00
    987a:	66 66 2e 0f 1f 84 00 	data16 cs nopw 0x0(%rax,%rax,1)
    9881:	00 00 00 00
    9885:	66 66 2e 0f 1f 84 00 	data16 cs nopw 0x0(%rax,%rax,1)
    988c:	00 00 00 00
    9890:	66 66 2e 0f 1f 84 00 	data16 cs nopw 0x0(%rax,%rax,1)
    9897:	00 00 00 00
    989b:	66 66 2e 0f 1f 84 00 	data16 cs nopw 0x0(%rax,%rax,1)
    98a2:	00 00 00 00
    98a6:	66 66 2e 0f 1f 84 00 	data16 cs nopw 0x0(%rax,%rax,1)
    98ad:	00 00 00 00
    98b1:	66 66 2e 0f 1f 84 00 	data16 cs nopw 0x0(%rax,%rax,1)
    98b8:	00 00 00 00
    98bc:	66 66 2e 0f 1f 84 00 	data16 cs nopw 0x0(%rax,%rax,1)
    98c3:	00 00 00 00
    98c7:	66 66 2e 0f 1f 84 00 	data16 cs nopw 0x0(%rax,%rax,1)
    98ce:	00 00 00 00
    98d2:	66 66 2e 0f 1f 84 00 	data16 cs nopw 0x0(%rax,%rax,1)
    98d9:	00 00 00 00
    98dd:	66 66 2e 0f 1f 84 00 	data16 cs nopw 0x0(%rax,%rax,1)
    98e4:	00 00 00 00
    98e8:	66 66 2e 0f 1f 84 00 	data16 cs nopw 0x0(%rax,%rax,1)
    98ef:	00 00 00 00
    98f3:	66 66 2e 0f 1f 84 00 	data16 cs nopw 0x0(%rax,%rax,1)
    98fa:	00 00 00 00
    98fe:	66 66 2e 0f 1f 84 00 	data16 cs nopw 0x0(%rax,%rax,1)
    9905:	00 00 00 00
    9909:	66 66 2e 0f 1f 84 00 	data16 cs nopw 0x0(%rax,%rax,1)
    9910:	00 00 00 00
    9914:	66 66 2e 0f 1f 84 00 	data16 cs nopw 0x0(%rax,%rax,1)
    991b:	00 00 00 00
    991f:	66 66 2e 0f 1f 84 00 	data16 cs nopw 0x0(%rax,%rax,1)
    9926:	00 00 00 00
    992a:	66 66 2e 0f 1f 84 00 	data16 cs nopw 0x0(%rax,%rax,1)
    9931:	00 00 00 00
    9935:	66 66 2e 0f 1f 84 00 	data16 cs nopw 0x0(%rax,%rax,1)
    993c:	00 00 00 00
    9940:	66 66 2e 0f 1f 84 00 	data16 cs nopw 0x0(%rax,%rax,1)
    9947:	00 00 00 00
    994b:	66 66 2e 0f 1f 84 00 	data16 cs nopw 0x0(%rax,%rax,1)
    9952:	00 00 00 00
    9956:	66 66 2e 0f 1f 84 00 	data16 cs nopw 0x0(%rax,%rax,1)
    995d:	00 00 00 00
    9961:	66 66 2e 0f 1f 84 00 	data16 cs nopw 0x0(%rax,%rax,1)
    9968:	00 00 00 00
    996c:	66 66 2e 0f 1f 84 00 	data16 cs nopw 0x0(%rax,%rax,1)
    9973:	00 00 00 00
    9977:	66 66 2e 0f 1f 84 00 	data16 cs nopw 0x0(%rax,%rax,1)
    997e:	00 00 00 00
    9982:	66 66 2e 0f 1f 84 00 	data16 cs nopw 0x0(%rax,%rax,1)
    9989:	00 00 00 00
    998d:	66 66 2e 0f 1f 84 00 	data16 cs nopw 0x0(%rax,%rax,1)
    9994:	00 00 00 00
    9998:	66 66 2e 0f 1f 84 00 	data16 cs nopw 0x0(%rax,%rax,1)
    999f:	00 00 00 00
    99a3:	66 66 2e 0f 1f 84 00 	data16 cs nopw 0x0(%rax,%rax,1)
    99aa:	00 00 00 00
    99ae:	66 66 2e 0f 1f 84 00 	data16 cs nopw 0x0(%rax,%rax,1)
    99b5:	00 00 00 00
    99b9:	66 66 2e 0f 1f 84 00 	data16 cs nopw 0x0(%rax,%rax,1)
    99c0:	00 00 00 00
    99c4:	66 66 2e 0f 1f 84 00 	data16 cs nopw 0x0(%rax,%rax,1)
    99cb:	00 00 00 00
    99cf:	66 66 2e 0f 1f 84 00 	data16 cs nopw 0x0(%rax,%rax,1)
    99d6:	00 00 00 00
    99da:	66 66 2e 0f 1f 84 00 	data16 cs nopw 0x0(%rax,%rax,1)
    99e1:	00 00 00 00
    99e5:	66 66 2e 0f 1f 84 00 	data16 cs nopw 0x0(%rax,%rax,1)
    99ec:	00 00 00 00
    99f0:	66 66 2e 0f 1f 84 00 	data16 cs nopw 0x0(%rax,%rax,1)
    99f7:	00 00 00 00
    99fb:	66 66 2e 0f 1f 84 00 	data16 cs nopw 0x0(%rax,%rax,1)
    9a02:	00 00 00 00
    9a06:	66 66 2e 0f 1f 84 00 	data16 cs nopw 0x0(%rax,%rax,1)
    9a0d:	00 00 00 00
    9a11:	66 66 2e 0f 1f 84 00 	data16 cs nopw 0x0(%rax,%rax,1)
    9a18:	00 00 00 00
    9a1c:	66 66 2e 0f 1f 84 00 	data16 cs nopw 0x0(%rax,%rax,1)
    9a23:	00 00 00 00
    9a27:	66 66 2e 0f 1f 84 00 	data16 cs nopw 0x0(%rax,%rax,1)
    9a2e:	00 00 00 00
    9a32:	66 66 2e 0f 1f 84 00 	data16 cs nopw 0x0(%rax,%rax,1)
    9a39:	00 00 00 00
    9a3d:	66 66 2e 0f 1f 84 00 	data16 cs nopw 0x0(%rax,%rax,1)
    9a44:	00 00 00 00
    9a48:	66 66 2e 0f 1f 84 00 	data16 cs nopw 0x0(%rax,%rax,1)
    9a4f:	00 00 00 00
    9a53:	66 66 2e 0f 1f 84 00 	data16 cs nopw 0x0(%rax,%rax,1)
    9a5a:	00 00 00 00
    9a5e:	66 66 2e 0f 1f 84 00 	data16 cs nopw 0x0(%rax,%rax,1)
    9a65:	00 00 00 00
    9a69:	66 66 2e 0f 1f 84 00 	data16 cs nopw 0x0(%rax,%rax,1)
    9a70:	00 00 00 00
    9a74:	66 66 2e 0f 1f 84 00 	data16 cs nopw 0x0(%rax,%rax,1)
    9a7b:	00 00 00 00
    9a7f:	66 66 2e 0f 1f 84 00 	data16 cs nopw 0x0(%rax,%rax,1)
    9a86:	00 00 00 00
    9a8a:	66 66 2e 0f 1f 84 00 	data16 cs nopw 0x0(%rax,%rax,1)
    9a91:	00 00 00 00
    9a95:	66 66 2e 0f 1f 84 00 	data16 cs nopw 0x0(%rax,%rax,1)
    9a9c:	00 00 00 00
    9aa0:	66 66 2e 0f 1f 84 00 	data16 cs nopw 0x0(%rax,%rax,1)
    9aa7:	00 00 00 00
    9aab:	66 66 2e 0f 1f 84 00 	data16 cs nopw 0x0(%rax,%rax,1)
    9ab2:	00 00 00 00
    9ab6:	66 66 2e 0f 1f 84 00 	data16 cs nopw 0x0(%rax,%rax,1)
    9abd:	00 00 00 00
    9ac1:	66 66 2e 0f 1f 84 00 	data16 cs nopw 0x0(%rax,%rax,1)
    9ac8:	00 00 00 00
    9acc:	66 66 2e 0f 1f 84 00 	data16 cs nopw 0x0(%rax,%rax,1)
    9ad3:	00 00 00 00
    9ad7:	66 66 2e 0f 1f 84 00 	data16 cs nopw 0x0(%rax,%rax,1)
    9ade:	00 00 00 00
    9ae2:	66 66 2e 0f 1f 84 00 	data16 cs nopw 0x0(%rax,%rax,1)
    9ae9:	00 00 00 00
    9aed:	66 66 2e 0f 1f 84 00 	data16 cs nopw 0x0(%rax,%rax,1)
    9af4:	00 00 00 00
    9af8:	66 66 2e 0f 1f 84 00 	data16 cs nopw 0x0(%rax,%rax,1)
    9aff:	00 00 00 00
    9b03:	66 66 2e 0f 1f 84 00 	data16 cs nopw 0x0(%rax,%rax,1)
    9b0a:	00 00 00 00
    9b0e:	66 66 2e 0f 1f 84 00 	data16 cs nopw 0x0(%rax,%rax,1)
    9b15:	00 00 00 00
    9b19:	66 66 2e 0f 1f 84 00 	data16 cs nopw 0x0(%rax,%rax,1)
    9b20:	00 00 00 00
    9b24:	66 66 2e 0f 1f 84 00 	data16 cs nopw 0x0(%rax,%rax,1)
    9b2b:	00 00 00 00
    9b2f:	66 66 2e 0f 1f 84 00 	data16 cs nopw 0x0(%rax,%rax,1)
    9b36:	00 00 00 00
    9b3a:	66 66 2e 0f 1f 84 00 	data16 cs nopw 0x0(%rax,%rax,1)
    9b41:	00 00 00 00
    9b45:	66 66 2e 0f 1f 84 00 	data16 cs nopw 0x0(%rax,%rax,1)
    9b4c:	00 00 00 00
    9b50:	66 66 2e 0f 1f 84 00 	data16 cs nopw 0x0(%rax,%rax,1)
    9b57:	00 00 00 00
    9b5b:	66 66 2e 0f 1f 84 00 	data16 cs nopw 0x0(%rax,%rax,1)
    9b62:	00 00 00 00
    9b66:	66 66 2e 0f 1f 84 00 	data16 cs nopw 0x0(%rax,%rax,1)
    9b6d:	00 00 00 00
    9b71:	66 66 2e 0f 1f 84 00 	data16 cs nopw 0x0(%rax,%rax,1)
    9b78:	00 00 00 00
    9b7c:	66 66 2e 0f 1f 84 00 	data16 cs nopw 0x0(%rax,%rax,1)
    9b83:	00 00 00 00
    9b87:	66 66 2e 0f 1f 84 00 	data16 cs nopw 0x0(%rax,%rax,1)
    9b8e:	00 00 00 00
    9b92:	66 66 2e 0f 1f 84 00 	data16 cs nopw 0x0(%rax,%rax,1)
    9b99:	00 00 00 00
    9b9d:	66 66 2e 0f 1f 84 00 	data16 cs nopw 0x0(%rax,%rax,1)
    9ba4:	00 00 00 00
    9ba8:	66 66 2e 0f 1f 84 00 	data16 cs nopw 0x0(%rax,%rax,1)
    9baf:	00 00 00 00
    9bb3:	66 66 2e 0f 1f 84 00 	data16 cs nopw 0x0(%rax,%rax,1)
    9bba:	00 00 00 00
    9bbe:	66 66 2e 0f 1f 84 00 	data16 cs nopw 0x0(%rax,%rax,1)
    9bc5:	00 00 00 00
    9bc9:	66 66 2e 0f 1f 84 00 	data16 cs nopw 0x0(%rax,%rax,1)
    9bd0:	00 00 00 00
    9bd4:	66 66 2e 0f 1f 84 00 	data16 cs nopw 0x0(%rax,%rax,1)
    9bdb:	00 00 00 00
    9bdf:	66 66 2e 0f 1f 84 00 	data16 cs nopw 0x0(%rax,%rax,1)
    9be6:	00 00 00 00
    9bea:	66 66 2e 0f 1f 84 00 	data16 cs nopw 0x0(%rax,%rax,1)
    9bf1:	00 00 00 00
    9bf5:	66 66 2e 0f 1f 84 00 	data16 cs nopw 0x0(%rax,%rax,1)
    9bfc:	00 00 00 00
    9c00:	66 66 2e 0f 1f 84 00 	data16 cs nopw 0x0(%rax,%rax,1)
    9c07:	00 00 00 00
    9c0b:	66 66 2e 0f 1f 84 00 	data16 cs nopw 0x0(%rax,%rax,1)
    9c12:	00 00 00 00
    9c16:	66 66 2e 0f 1f 84 00 	data16 cs nopw 0x0(%rax,%rax,1)
    9c1d:	00 00 00 00
    9c21:	66 66 2e 0f 1f 84 00 	data16 cs nopw 0x0(%rax,%rax,1)
    9c28:	00 00 00 00
    9c2c:	66 66 2e 0f 1f 84 00 	data16 cs nopw 0x0(%rax,%rax,1)
    9c33:	00 00 00 00
    9c37:	66 66 2e 0f 1f 84 00 	data16 cs nopw 0x0(%rax,%rax,1)
    9c3e:	00 00 00 00
    9c42:	66 66 2e 0f 1f 84 00 	data16 cs nopw 0x0(%rax,%rax,1)
    9c49:	00 00 00 00
    9c4d:	66 66 2e 0f 1f 84 00 	data16 cs nopw 0x0(%rax,%rax,1)
    9c54:	00 00 00 00
    9c58:	66 66 2e 0f 1f 84 00 	data16 cs nopw 0x0(%rax,%rax,1)
    9c5f:	00 00 00 00
    9c63:	66 66 2e 0f 1f 84 00 	data16 cs nopw 0x0(%rax,%rax,1)
    9c6a:	00 00 00 00
    9c6e:	66 66 2e 0f 1f 84 00 	data16 cs nopw 0x0(%rax,%rax,1)
    9c75:	00 00 00 00
    9c79:	66 66 2e 0f 1f 84 00 	data16 cs nopw 0x0(%rax,%rax,1)
    9c80:	00 00 00 00
    9c84:	66 66 2e 0f 1f 84 00 	data16 cs nopw 0x0(%rax,%rax,1)
    9c8b:	00 00 00 00
    9c8f:	66 66 2e 0f 1f 84 00 	data16 cs nopw 0x0(%rax,%rax,1)
    9c96:	00 00 00 00
    9c9a:	66 66 2e 0f 1f 84 00 	data16 cs nopw 0x0(%rax,%rax,1)
    9ca1:	00 00 00 00
    9ca5:	66 66 2e 0f 1f 84 00 	data16 cs nopw 0x0(%rax,%rax,1)
    9cac:	00 00 00 00
    9cb0:	66 66 2e 0f 1f 84 00 	data16 cs nopw 0x0(%rax,%rax,1)
    9cb7:	00 00 00 00
    9cbb:	66 66 2e 0f 1f 84 00 	data16 cs nopw 0x0(%rax,%rax,1)
    9cc2:	00 00 00 00
    9cc6:	66 66 2e 0f 1f 84 00 	data16 cs nopw 0x0(%rax,%rax,1)
    9ccd:	00 00 00 00
    9cd1:	66 66 2e 0f 1f 84 00 	data16 cs nopw 0x0(%rax,%rax,1)
    9cd8:	00 00 00 00
    9cdc:	66 66 2e 0f 1f 84 00 	data16 cs nopw 0x0(%rax,%rax,1)
    9ce3:	00 00 00 00
    9ce7:	66 66 2e 0f 1f 84 00 	data16 cs nopw 0x0(%rax,%rax,1)
    9cee:	00 00 00 00
    9cf2:	66 66 2e 0f 1f 84 00 	data16 cs nopw 0x0(%rax,%rax,1)
    9cf9:	00 00 00 00
    9cfd:	66 66 2e 0f 1f 84 00 	data16 cs nopw 0x0(%rax,%rax,1)
    9d04:	00 00 00 00
    9d08:	66 66 2e 0f 1f 84 00 	data16 cs nopw 0x0(%rax,%rax,1)
    9d0f:	00 00 00 00
    9d13:	66 66 2e 0f 1f 84 00 	data16 cs nopw 0x0(%rax,%rax,1)
    9d1a:	00 00 00 00
    9d1e:	66 66 2e 0f 1f 84 00 	data16 cs nopw 0x0(%rax,%rax,1)
    9d25:	00 00 00 00
    9d29:	66 66 2e 0f 1f 84 00 	data16 cs nopw 0x0(%rax,%rax,1)
    9d30:	00 00 00 00
    9d34:	66 66 2e 0f 1f 84 00 	data16 cs nopw 0x0(%rax,%rax,1)
    9d3b:	00 00 00 00
    9d3f:	66 66 2e 0f 1f 84 00 	data16 cs nopw 0x0(%rax,%rax,1)
    9d46:	00 00 00 00
    9d4a:	66 66 2e 0f 1f 84 00 	data16 cs nopw 0x0(%rax,%rax,1)
    9d51:	00 00 00 00
    9d55:	66 66 2e 0f 1f 84 00 	data16 cs nopw 0x0(%rax,%rax,1)
    9d5c:	00 00 00 00
    9d60:	66 66 2e 0f 1f 84 00 	data16 cs nopw 0x0(%rax,%rax,1)
    9d67:	00 00 00 00
    9d6b:	66 66 2e 0f 1f 84 00 	data16 cs nopw 0x0(%rax,%rax,1)
    9d72:	00 00 00 00
    9d76:	66 66 2e 0f 1f 84 00 	data16 cs nopw 0x0(%rax,%rax,1)
    9d7d:	00 00 00 00
    9d81:	66 66 2e 0f 1f 84 00 	data16 cs nopw 0x0(%rax,%rax,1)
    9d88:	00 00 00 00
    9d8c:	66 66 2e 0f 1f 84 00 	data16 cs nopw 0x0(%rax,%rax,1)
    9d93:	00 00 00 00
    9d97:	66 66 2e 0f 1f 84 00 	data16 cs nopw 0x0(%rax,%rax,1)
    9d9e:	00 00 00 00
    9da2:	66 66 2e 0f 1f 84 00 	data16 cs nopw 0x0(%rax,%rax,1)
    9da9:	00 00 00 00
    9dad:	66 66 2e 0f 1f 84 00 	data16 cs nopw 0x0(%rax,%rax,1)
    9db4:	00 00 00 00
    9db8:	66 66 2e 0f 1f 84 00 	data16 cs nopw 0x0(%rax,%rax,1)
    9dbf:	00 00 00 00
    9dc3:	66 66 2e 0f 1f 84 00 	data16 cs nopw 0x0(%rax,%rax,1)
    9dca:	00 00 00 00
    9dce:	66 66 2e 0f 1f 84 00 	data16 cs nopw 0x0(%rax,%rax,1)
    9dd5:	00 00 00 00
    9dd9:	66 66 2e 0f 1f 84 00 	data16 cs nopw 0x0(%rax,%rax,1)
    9de0:	00 00 00 00
    9de4:	66 66 2e 0f 1f 84 00 	data16 cs nopw 0x0(%rax,%rax,1)
    9deb:	00 00 00 00
    9def:	66 66 2e 0f 1f 84 00 	data16 cs nopw 0x0(%rax,%rax,1)
    9df6:	00 00 00 00
    9dfa:	66 66 2e 0f 1f 84 00 	data16 cs nopw 0x0(%rax,%rax,1)
    9e01:	00 00 00 00
    9e05:	66 66 2e 0f 1f 84 00 	data16 cs nopw 0x0(%rax,%rax,1)
    9e0c:	00 00 00 00
    9e10:	66 66 2e 0f 1f 84 00 	data16 cs nopw 0x0(%rax,%rax,1)
    9e17:	00 00 00 00
    9e1b:	66 66 2e 0f 1f 84 00 	data16 cs nopw 0x0(%rax,%rax,1)
    9e22:	00 00 00 00
    9e26:	66 66 2e 0f 1f 84 00 	data16 cs nopw 0x0(%rax,%rax,1)
    9e2d:	00 00 00 00
    9e31:	66 66 2e 0f 1f 84 00 	data16 cs nopw 0x0(%rax,%rax,1)
    9e38:	00 00 00 00
    9e3c:	66 66 2e 0f 1f 84 00 	data16 cs nopw 0x0(%rax,%rax,1)
    9e43:	00 00 00 00
    9e47:	66 66 2e 0f 1f 84 00 	data16 cs nopw 0x0(%rax,%rax,1)
    9e4e:	00 00 00 00
    9e52:	66 66 2e 0f 1f 84 00 	data16 cs nopw 0x0(%rax,%rax,1)
    9e59:	00 00 00 00
    9e5d:	66 66 2e 0f 1f 84 00 	data16 cs nopw 0x0(%rax,%rax,1)
    9e64:	00 00 00 00
    9e68:	66 66 2e 0f 1f 84 00 	data16 cs nopw 0x0(%rax,%rax,1)
    9e6f:	00 00 00 00
    9e73:	66 66 2e 0f 1f 84 00 	data16 cs nopw 0x0(%rax,%rax,1)
    9e7a:	00 00 00 00
    9e7e:	66 66 2e 0f 1f 84 00 	data16 cs nopw 0x0(%rax,%rax,1)
    9e85:	00 00 00 00
    9e89:	66 66 2e 0f 1f 84 00 	data16 cs nopw 0x0(%rax,%rax,1)
    9e90:	00 00 00 00
    9e94:	66 66 2e 0f 1f 84 00 	data16 cs nopw 0x0(%rax,%rax,1)
    9e9b:	00 00 00 00
    9e9f:	66 66 2e 0f 1f 84 00 	data16 cs nopw 0x0(%rax,%rax,1)
    9ea6:	00 00 00 00
    9eaa:	66 66 2e 0f 1f 84 00 	data16 cs nopw 0x0(%rax,%rax,1)
    9eb1:	00 00 00 00
    9eb5:	66 66 2e 0f 1f 84 00 	data16 cs nopw 0x0(%rax,%rax,1)
    9ebc:	00 00 00 00
    9ec0:	66 66 2e 0f 1f 84 00 	data16 cs nopw 0x0(%rax,%rax,1)
    9ec7:	00 00 00 00
    9ecb:	66 66 2e 0f 1f 84 00 	data16 cs nopw 0x0(%rax,%rax,1)
    9ed2:	00 00 00 00
    9ed6:	66 66 2e 0f 1f 84 00 	data16 cs nopw 0x0(%rax,%rax,1)
    9edd:	00 00 00 00
    9ee1:	66 66 2e 0f 1f 84 00 	data16 cs nopw 0x0(%rax,%rax,1)
    9ee8:	00 00 00 00
    9eec:	66 66 2e 0f 1f 84 00 	data16 cs nopw 0x0(%rax,%rax,1)
    9ef3:	00 00 00 00
    9ef7:	66 66 2e 0f 1f 84 00 	data16 cs nopw 0x0(%rax,%rax,1)
    9efe:	00 00 00 00
    9f02:	66 66 2e 0f 1f 84 00 	data16 cs nopw 0x0(%rax,%rax,1)
    9f09:	00 00 00 00
    9f0d:	66 66 2e 0f 1f 84 00 	data16 cs nopw 0x0(%rax,%rax,1)
    9f14:	00 00 00 00
    9f18:	66 66 2e 0f 1f 84 00 	data16 cs nopw 0x0(%rax,%rax,1)
    9f1f:	00 00 00 00
    9f23:	66 66 2e 0f 1f 84 00 	data16 cs nopw 0x0(%rax,%rax,1)
    9f2a:	00 00 00 00
    9f2e:	66 66 2e 0f 1f 84 00 	data16 cs nopw 0x0(%rax,%rax,1)
    9f35:	00 00 00 00
    9f39:	66 66 2e 0f 1f 84 00 	data16 cs nopw 0x0(%rax,%rax,1)
    9f40:	00 00 00 00
    9f44:	66 66 2e 0f 1f 84 00 	data16 cs nopw 0x0(%rax,%rax,1)
    9f4b:	00 00 00 00
    9f4f:	66 66 2e 0f 1f 84 00 	data16 cs nopw 0x0(%rax,%rax,1)
    9f56:	00 00 00 00
    9f5a:	66 66 2e 0f 1f 84 00 	data16 cs nopw 0x0(%rax,%rax,1)
    9f61:	00 00 00 00
    9f65:	66 66 2e 0f 1f 84 00 	data16 cs nopw 0x0(%rax,%rax,1)
    9f6c:	00 00 00 00
    9f70:	66 66 2e 0f 1f 84 00 	data16 cs nopw 0x0(%rax,%rax,1)
    9f77:	00 00 00 00
    9f7b:	66 66 2e 0f 1f 84 00 	data16 cs nopw 0x0(%rax,%rax,1)
    9f82:	00 00 00 00
    9f86:	66 66 2e 0f 1f 84 00 	data16 cs nopw 0x0(%rax,%rax,1)
    9f8d:	00 00 00 00
    9f91:	66 66 2e 0f 1f 84 00 	data16 cs nopw 0x0(%rax,%rax,1)
    9f98:	00 00 00 00
    9f9c:	66 66 2e 0f 1f 84 00 	data16 cs nopw 0x0(%rax,%rax,1)
    9fa3:	00 00 00 00
    9fa7:	66 66 2e 0f 1f 84 00 	data16 cs nopw 0x0(%rax,%rax,1)
    9fae:	00 00 00 00
    9fb2:	66 66 2e 0f 1f 84 00 	data16 cs nopw 0x0(%rax,%rax,1)
    9fb9:	00 00 00 00
    9fbd:	66 66 2e 0f 1f 84 00 	data16 cs nopw 0x0(%rax,%rax,1)
    9fc4:	00 00 00 00
    9fc8:	66 66 2e 0f 1f 84 00 	data16 cs nopw 0x0(%rax,%rax,1)
    9fcf:	00 00 00 00
    9fd3:	66 66 2e 0f 1f 84 00 	data16 cs nopw 0x0(%rax,%rax,1)
    9fda:	00 00 00 00
    9fde:	66 66 2e 0f 1f 84 00 	data16 cs nopw 0x0(%rax,%rax,1)
    9fe5:	00 00 00 00
    9fe9:	66 66 2e 0f 1f 84 00 	data16 cs nopw 0x0(%rax,%rax,1)
    9ff0:	00 00 00 00
    9ff4:	66 66 2e 0f 1f 84 00 	data16 cs nopw 0x0(%rax,%rax,1)
    9ffb:	00 00 00 00
    9fff:	90                   	nop

000000000000a000 <pdpt>:
    a000:	03 b0 00 00 00 00    	add    0x0(%rax),%esi
    a006:	00 00                	add    %al,(%rax)
    a008:	90                   	nop
    a009:	e9 f2 0f 00 00       	jmp    b000 <pd>
    a00e:	66 66 2e 0f 1f 84 00 	data16 cs nopw 0x0(%rax,%rax,1)
    a015:	00 00 00 00
    a019:	66 66 2e 0f 1f 84 00 	data16 cs nopw 0x0(%rax,%rax,1)
    a020:	00 00 00 00
    a024:	66 66 2e 0f 1f 84 00 	data16 cs nopw 0x0(%rax,%rax,1)
    a02b:	00 00 00 00
    a02f:	66 66 2e 0f 1f 84 00 	data16 cs nopw 0x0(%rax,%rax,1)
    a036:	00 00 00 00
    a03a:	66 66 2e 0f 1f 84 00 	data16 cs nopw 0x0(%rax,%rax,1)
    a041:	00 00 00 00
    a045:	66 66 2e 0f 1f 84 00 	data16 cs nopw 0x0(%rax,%rax,1)
    a04c:	00 00 00 00
    a050:	66 66 2e 0f 1f 84 00 	data16 cs nopw 0x0(%rax,%rax,1)
    a057:	00 00 00 00
    a05b:	66 66 2e 0f 1f 84 00 	data16 cs nopw 0x0(%rax,%rax,1)
    a062:	00 00 00 00
    a066:	66 66 2e 0f 1f 84 00 	data16 cs nopw 0x0(%rax,%rax,1)
    a06d:	00 00 00 00
    a071:	66 66 2e 0f 1f 84 00 	data16 cs nopw 0x0(%rax,%rax,1)
    a078:	00 00 00 00
    a07c:	66 66 2e 0f 1f 84 00 	data16 cs nopw 0x0(%rax,%rax,1)
    a083:	00 00 00 00
    a087:	66 66 2e 0f 1f 84 00 	data16 cs nopw 0x0(%rax,%rax,1)
    a08e:	00 00 00 00
    a092:	66 66 2e 0f 1f 84 00 	data16 cs nopw 0x0(%rax,%rax,1)
    a099:	00 00 00 00
    a09d:	66 66 2e 0f 1f 84 00 	data16 cs nopw 0x0(%rax,%rax,1)
    a0a4:	00 00 00 00
    a0a8:	66 66 2e 0f 1f 84 00 	data16 cs nopw 0x0(%rax,%rax,1)
    a0af:	00 00 00 00
    a0b3:	66 66 2e 0f 1f 84 00 	data16 cs nopw 0x0(%rax,%rax,1)
    a0ba:	00 00 00 00
    a0be:	66 66 2e 0f 1f 84 00 	data16 cs nopw 0x0(%rax,%rax,1)
    a0c5:	00 00 00 00
    a0c9:	66 66 2e 0f 1f 84 00 	data16 cs nopw 0x0(%rax,%rax,1)
    a0d0:	00 00 00 00
    a0d4:	66 66 2e 0f 1f 84 00 	data16 cs nopw 0x0(%rax,%rax,1)
    a0db:	00 00 00 00
    a0df:	66 66 2e 0f 1f 84 00 	data16 cs nopw 0x0(%rax,%rax,1)
    a0e6:	00 00 00 00
    a0ea:	66 66 2e 0f 1f 84 00 	data16 cs nopw 0x0(%rax,%rax,1)
    a0f1:	00 00 00 00
    a0f5:	66 66 2e 0f 1f 84 00 	data16 cs nopw 0x0(%rax,%rax,1)
    a0fc:	00 00 00 00
    a100:	66 66 2e 0f 1f 84 00 	data16 cs nopw 0x0(%rax,%rax,1)
    a107:	00 00 00 00
    a10b:	66 66 2e 0f 1f 84 00 	data16 cs nopw 0x0(%rax,%rax,1)
    a112:	00 00 00 00
    a116:	66 66 2e 0f 1f 84 00 	data16 cs nopw 0x0(%rax,%rax,1)
    a11d:	00 00 00 00
    a121:	66 66 2e 0f 1f 84 00 	data16 cs nopw 0x0(%rax,%rax,1)
    a128:	00 00 00 00
    a12c:	66 66 2e 0f 1f 84 00 	data16 cs nopw 0x0(%rax,%rax,1)
    a133:	00 00 00 00
    a137:	66 66 2e 0f 1f 84 00 	data16 cs nopw 0x0(%rax,%rax,1)
    a13e:	00 00 00 00
    a142:	66 66 2e 0f 1f 84 00 	data16 cs nopw 0x0(%rax,%rax,1)
    a149:	00 00 00 00
    a14d:	66 66 2e 0f 1f 84 00 	data16 cs nopw 0x0(%rax,%rax,1)
    a154:	00 00 00 00
    a158:	66 66 2e 0f 1f 84 00 	data16 cs nopw 0x0(%rax,%rax,1)
    a15f:	00 00 00 00
    a163:	66 66 2e 0f 1f 84 00 	data16 cs nopw 0x0(%rax,%rax,1)
    a16a:	00 00 00 00
    a16e:	66 66 2e 0f 1f 84 00 	data16 cs nopw 0x0(%rax,%rax,1)
    a175:	00 00 00 00
    a179:	66 66 2e 0f 1f 84 00 	data16 cs nopw 0x0(%rax,%rax,1)
    a180:	00 00 00 00
    a184:	66 66 2e 0f 1f 84 00 	data16 cs nopw 0x0(%rax,%rax,1)
    a18b:	00 00 00 00
    a18f:	66 66 2e 0f 1f 84 00 	data16 cs nopw 0x0(%rax,%rax,1)
    a196:	00 00 00 00
    a19a:	66 66 2e 0f 1f 84 00 	data16 cs nopw 0x0(%rax,%rax,1)
    a1a1:	00 00 00 00
    a1a5:	66 66 2e 0f 1f 84 00 	data16 cs nopw 0x0(%rax,%rax,1)
    a1ac:	00 00 00 00
    a1b0:	66 66 2e 0f 1f 84 00 	data16 cs nopw 0x0(%rax,%rax,1)
    a1b7:	00 00 00 00
    a1bb:	66 66 2e 0f 1f 84 00 	data16 cs nopw 0x0(%rax,%rax,1)
    a1c2:	00 00 00 00
    a1c6:	66 66 2e 0f 1f 84 00 	data16 cs nopw 0x0(%rax,%rax,1)
    a1cd:	00 00 00 00
    a1d1:	66 66 2e 0f 1f 84 00 	data16 cs nopw 0x0(%rax,%rax,1)
    a1d8:	00 00 00 00
    a1dc:	66 66 2e 0f 1f 84 00 	data16 cs nopw 0x0(%rax,%rax,1)
    a1e3:	00 00 00 00
    a1e7:	66 66 2e 0f 1f 84 00 	data16 cs nopw 0x0(%rax,%rax,1)
    a1ee:	00 00 00 00
    a1f2:	66 66 2e 0f 1f 84 00 	data16 cs nopw 0x0(%rax,%rax,1)
    a1f9:	00 00 00 00
    a1fd:	66 66 2e 0f 1f 84 00 	data16 cs nopw 0x0(%rax,%rax,1)
    a204:	00 00 00 00
    a208:	66 66 2e 0f 1f 84 00 	data16 cs nopw 0x0(%rax,%rax,1)
    a20f:	00 00 00 00
    a213:	66 66 2e 0f 1f 84 00 	data16 cs nopw 0x0(%rax,%rax,1)
    a21a:	00 00 00 00
    a21e:	66 66 2e 0f 1f 84 00 	data16 cs nopw 0x0(%rax,%rax,1)
    a225:	00 00 00 00
    a229:	66 66 2e 0f 1f 84 00 	data16 cs nopw 0x0(%rax,%rax,1)
    a230:	00 00 00 00
    a234:	66 66 2e 0f 1f 84 00 	data16 cs nopw 0x0(%rax,%rax,1)
    a23b:	00 00 00 00
    a23f:	66 66 2e 0f 1f 84 00 	data16 cs nopw 0x0(%rax,%rax,1)
    a246:	00 00 00 00
    a24a:	66 66 2e 0f 1f 84 00 	data16 cs nopw 0x0(%rax,%rax,1)
    a251:	00 00 00 00
    a255:	66 66 2e 0f 1f 84 00 	data16 cs nopw 0x0(%rax,%rax,1)
    a25c:	00 00 00 00
    a260:	66 66 2e 0f 1f 84 00 	data16 cs nopw 0x0(%rax,%rax,1)
    a267:	00 00 00 00
    a26b:	66 66 2e 0f 1f 84 00 	data16 cs nopw 0x0(%rax,%rax,1)
    a272:	00 00 00 00
    a276:	66 66 2e 0f 1f 84 00 	data16 cs nopw 0x0(%rax,%rax,1)
    a27d:	00 00 00 00
    a281:	66 66 2e 0f 1f 84 00 	data16 cs nopw 0x0(%rax,%rax,1)
    a288:	00 00 00 00
    a28c:	66 66 2e 0f 1f 84 00 	data16 cs nopw 0x0(%rax,%rax,1)
    a293:	00 00 00 00
    a297:	66 66 2e 0f 1f 84 00 	data16 cs nopw 0x0(%rax,%rax,1)
    a29e:	00 00 00 00
    a2a2:	66 66 2e 0f 1f 84 00 	data16 cs nopw 0x0(%rax,%rax,1)
    a2a9:	00 00 00 00
    a2ad:	66 66 2e 0f 1f 84 00 	data16 cs nopw 0x0(%rax,%rax,1)
    a2b4:	00 00 00 00
    a2b8:	66 66 2e 0f 1f 84 00 	data16 cs nopw 0x0(%rax,%rax,1)
    a2bf:	00 00 00 00
    a2c3:	66 66 2e 0f 1f 84 00 	data16 cs nopw 0x0(%rax,%rax,1)
    a2ca:	00 00 00 00
    a2ce:	66 66 2e 0f 1f 84 00 	data16 cs nopw 0x0(%rax,%rax,1)
    a2d5:	00 00 00 00
    a2d9:	66 66 2e 0f 1f 84 00 	data16 cs nopw 0x0(%rax,%rax,1)
    a2e0:	00 00 00 00
    a2e4:	66 66 2e 0f 1f 84 00 	data16 cs nopw 0x0(%rax,%rax,1)
    a2eb:	00 00 00 00
    a2ef:	66 66 2e 0f 1f 84 00 	data16 cs nopw 0x0(%rax,%rax,1)
    a2f6:	00 00 00 00
    a2fa:	66 66 2e 0f 1f 84 00 	data16 cs nopw 0x0(%rax,%rax,1)
    a301:	00 00 00 00
    a305:	66 66 2e 0f 1f 84 00 	data16 cs nopw 0x0(%rax,%rax,1)
    a30c:	00 00 00 00
    a310:	66 66 2e 0f 1f 84 00 	data16 cs nopw 0x0(%rax,%rax,1)
    a317:	00 00 00 00
    a31b:	66 66 2e 0f 1f 84 00 	data16 cs nopw 0x0(%rax,%rax,1)
    a322:	00 00 00 00
    a326:	66 66 2e 0f 1f 84 00 	data16 cs nopw 0x0(%rax,%rax,1)
    a32d:	00 00 00 00
    a331:	66 66 2e 0f 1f 84 00 	data16 cs nopw 0x0(%rax,%rax,1)
    a338:	00 00 00 00
    a33c:	66 66 2e 0f 1f 84 00 	data16 cs nopw 0x0(%rax,%rax,1)
    a343:	00 00 00 00
    a347:	66 66 2e 0f 1f 84 00 	data16 cs nopw 0x0(%rax,%rax,1)
    a34e:	00 00 00 00
    a352:	66 66 2e 0f 1f 84 00 	data16 cs nopw 0x0(%rax,%rax,1)
    a359:	00 00 00 00
    a35d:	66 66 2e 0f 1f 84 00 	data16 cs nopw 0x0(%rax,%rax,1)
    a364:	00 00 00 00
    a368:	66 66 2e 0f 1f 84 00 	data16 cs nopw 0x0(%rax,%rax,1)
    a36f:	00 00 00 00
    a373:	66 66 2e 0f 1f 84 00 	data16 cs nopw 0x0(%rax,%rax,1)
    a37a:	00 00 00 00
    a37e:	66 66 2e 0f 1f 84 00 	data16 cs nopw 0x0(%rax,%rax,1)
    a385:	00 00 00 00
    a389:	66 66 2e 0f 1f 84 00 	data16 cs nopw 0x0(%rax,%rax,1)
    a390:	00 00 00 00
    a394:	66 66 2e 0f 1f 84 00 	data16 cs nopw 0x0(%rax,%rax,1)
    a39b:	00 00 00 00
    a39f:	66 66 2e 0f 1f 84 00 	data16 cs nopw 0x0(%rax,%rax,1)
    a3a6:	00 00 00 00
    a3aa:	66 66 2e 0f 1f 84 00 	data16 cs nopw 0x0(%rax,%rax,1)
    a3b1:	00 00 00 00
    a3b5:	66 66 2e 0f 1f 84 00 	data16 cs nopw 0x0(%rax,%rax,1)
    a3bc:	00 00 00 00
    a3c0:	66 66 2e 0f 1f 84 00 	data16 cs nopw 0x0(%rax,%rax,1)
    a3c7:	00 00 00 00
    a3cb:	66 66 2e 0f 1f 84 00 	data16 cs nopw 0x0(%rax,%rax,1)
    a3d2:	00 00 00 00
    a3d6:	66 66 2e 0f 1f 84 00 	data16 cs nopw 0x0(%rax,%rax,1)
    a3dd:	00 00 00 00
    a3e1:	66 66 2e 0f 1f 84 00 	data16 cs nopw 0x0(%rax,%rax,1)
    a3e8:	00 00 00 00
    a3ec:	66 66 2e 0f 1f 84 00 	data16 cs nopw 0x0(%rax,%rax,1)
    a3f3:	00 00 00 00
    a3f7:	66 66 2e 0f 1f 84 00 	data16 cs nopw 0x0(%rax,%rax,1)
    a3fe:	00 00 00 00
    a402:	66 66 2e 0f 1f 84 00 	data16 cs nopw 0x0(%rax,%rax,1)
    a409:	00 00 00 00
    a40d:	66 66 2e 0f 1f 84 00 	data16 cs nopw 0x0(%rax,%rax,1)
    a414:	00 00 00 00
    a418:	66 66 2e 0f 1f 84 00 	data16 cs nopw 0x0(%rax,%rax,1)
    a41f:	00 00 00 00
    a423:	66 66 2e 0f 1f 84 00 	data16 cs nopw 0x0(%rax,%rax,1)
    a42a:	00 00 00 00
    a42e:	66 66 2e 0f 1f 84 00 	data16 cs nopw 0x0(%rax,%rax,1)
    a435:	00 00 00 00
    a439:	66 66 2e 0f 1f 84 00 	data16 cs nopw 0x0(%rax,%rax,1)
    a440:	00 00 00 00
    a444:	66 66 2e 0f 1f 84 00 	data16 cs nopw 0x0(%rax,%rax,1)
    a44b:	00 00 00 00
    a44f:	66 66 2e 0f 1f 84 00 	data16 cs nopw 0x0(%rax,%rax,1)
    a456:	00 00 00 00
    a45a:	66 66 2e 0f 1f 84 00 	data16 cs nopw 0x0(%rax,%rax,1)
    a461:	00 00 00 00
    a465:	66 66 2e 0f 1f 84 00 	data16 cs nopw 0x0(%rax,%rax,1)
    a46c:	00 00 00 00
    a470:	66 66 2e 0f 1f 84 00 	data16 cs nopw 0x0(%rax,%rax,1)
    a477:	00 00 00 00
    a47b:	66 66 2e 0f 1f 84 00 	data16 cs nopw 0x0(%rax,%rax,1)
    a482:	00 00 00 00
    a486:	66 66 2e 0f 1f 84 00 	data16 cs nopw 0x0(%rax,%rax,1)
    a48d:	00 00 00 00
    a491:	66 66 2e 0f 1f 84 00 	data16 cs nopw 0x0(%rax,%rax,1)
    a498:	00 00 00 00
    a49c:	66 66 2e 0f 1f 84 00 	data16 cs nopw 0x0(%rax,%rax,1)
    a4a3:	00 00 00 00
    a4a7:	66 66 2e 0f 1f 84 00 	data16 cs nopw 0x0(%rax,%rax,1)
    a4ae:	00 00 00 00
    a4b2:	66 66 2e 0f 1f 84 00 	data16 cs nopw 0x0(%rax,%rax,1)
    a4b9:	00 00 00 00
    a4bd:	66 66 2e 0f 1f 84 00 	data16 cs nopw 0x0(%rax,%rax,1)
    a4c4:	00 00 00 00
    a4c8:	66 66 2e 0f 1f 84 00 	data16 cs nopw 0x0(%rax,%rax,1)
    a4cf:	00 00 00 00
    a4d3:	66 66 2e 0f 1f 84 00 	data16 cs nopw 0x0(%rax,%rax,1)
    a4da:	00 00 00 00
    a4de:	66 66 2e 0f 1f 84 00 	data16 cs nopw 0x0(%rax,%rax,1)
    a4e5:	00 00 00 00
    a4e9:	66 66 2e 0f 1f 84 00 	data16 cs nopw 0x0(%rax,%rax,1)
    a4f0:	00 00 00 00
    a4f4:	66 66 2e 0f 1f 84 00 	data16 cs nopw 0x0(%rax,%rax,1)
    a4fb:	00 00 00 00
    a4ff:	66 66 2e 0f 1f 84 00 	data16 cs nopw 0x0(%rax,%rax,1)
    a506:	00 00 00 00
    a50a:	66 66 2e 0f 1f 84 00 	data16 cs nopw 0x0(%rax,%rax,1)
    a511:	00 00 00 00
    a515:	66 66 2e 0f 1f 84 00 	data16 cs nopw 0x0(%rax,%rax,1)
    a51c:	00 00 00 00
    a520:	66 66 2e 0f 1f 84 00 	data16 cs nopw 0x0(%rax,%rax,1)
    a527:	00 00 00 00
    a52b:	66 66 2e 0f 1f 84 00 	data16 cs nopw 0x0(%rax,%rax,1)
    a532:	00 00 00 00
    a536:	66 66 2e 0f 1f 84 00 	data16 cs nopw 0x0(%rax,%rax,1)
    a53d:	00 00 00 00
    a541:	66 66 2e 0f 1f 84 00 	data16 cs nopw 0x0(%rax,%rax,1)
    a548:	00 00 00 00
    a54c:	66 66 2e 0f 1f 84 00 	data16 cs nopw 0x0(%rax,%rax,1)
    a553:	00 00 00 00
    a557:	66 66 2e 0f 1f 84 00 	data16 cs nopw 0x0(%rax,%rax,1)
    a55e:	00 00 00 00
    a562:	66 66 2e 0f 1f 84 00 	data16 cs nopw 0x0(%rax,%rax,1)
    a569:	00 00 00 00
    a56d:	66 66 2e 0f 1f 84 00 	data16 cs nopw 0x0(%rax,%rax,1)
    a574:	00 00 00 00
    a578:	66 66 2e 0f 1f 84 00 	data16 cs nopw 0x0(%rax,%rax,1)
    a57f:	00 00 00 00
    a583:	66 66 2e 0f 1f 84 00 	data16 cs nopw 0x0(%rax,%rax,1)
    a58a:	00 00 00 00
    a58e:	66 66 2e 0f 1f 84 00 	data16 cs nopw 0x0(%rax,%rax,1)
    a595:	00 00 00 00
    a599:	66 66 2e 0f 1f 84 00 	data16 cs nopw 0x0(%rax,%rax,1)
    a5a0:	00 00 00 00
    a5a4:	66 66 2e 0f 1f 84 00 	data16 cs nopw 0x0(%rax,%rax,1)
    a5ab:	00 00 00 00
    a5af:	66 66 2e 0f 1f 84 00 	data16 cs nopw 0x0(%rax,%rax,1)
    a5b6:	00 00 00 00
    a5ba:	66 66 2e 0f 1f 84 00 	data16 cs nopw 0x0(%rax,%rax,1)
    a5c1:	00 00 00 00
    a5c5:	66 66 2e 0f 1f 84 00 	data16 cs nopw 0x0(%rax,%rax,1)
    a5cc:	00 00 00 00
    a5d0:	66 66 2e 0f 1f 84 00 	data16 cs nopw 0x0(%rax,%rax,1)
    a5d7:	00 00 00 00
    a5db:	66 66 2e 0f 1f 84 00 	data16 cs nopw 0x0(%rax,%rax,1)
    a5e2:	00 00 00 00
    a5e6:	66 66 2e 0f 1f 84 00 	data16 cs nopw 0x0(%rax,%rax,1)
    a5ed:	00 00 00 00
    a5f1:	66 66 2e 0f 1f 84 00 	data16 cs nopw 0x0(%rax,%rax,1)
    a5f8:	00 00 00 00
    a5fc:	66 66 2e 0f 1f 84 00 	data16 cs nopw 0x0(%rax,%rax,1)
    a603:	00 00 00 00
    a607:	66 66 2e 0f 1f 84 00 	data16 cs nopw 0x0(%rax,%rax,1)
    a60e:	00 00 00 00
    a612:	66 66 2e 0f 1f 84 00 	data16 cs nopw 0x0(%rax,%rax,1)
    a619:	00 00 00 00
    a61d:	66 66 2e 0f 1f 84 00 	data16 cs nopw 0x0(%rax,%rax,1)
    a624:	00 00 00 00
    a628:	66 66 2e 0f 1f 84 00 	data16 cs nopw 0x0(%rax,%rax,1)
    a62f:	00 00 00 00
    a633:	66 66 2e 0f 1f 84 00 	data16 cs nopw 0x0(%rax,%rax,1)
    a63a:	00 00 00 00
    a63e:	66 66 2e 0f 1f 84 00 	data16 cs nopw 0x0(%rax,%rax,1)
    a645:	00 00 00 00
    a649:	66 66 2e 0f 1f 84 00 	data16 cs nopw 0x0(%rax,%rax,1)
    a650:	00 00 00 00
    a654:	66 66 2e 0f 1f 84 00 	data16 cs nopw 0x0(%rax,%rax,1)
    a65b:	00 00 00 00
    a65f:	66 66 2e 0f 1f 84 00 	data16 cs nopw 0x0(%rax,%rax,1)
    a666:	00 00 00 00
    a66a:	66 66 2e 0f 1f 84 00 	data16 cs nopw 0x0(%rax,%rax,1)
    a671:	00 00 00 00
    a675:	66 66 2e 0f 1f 84 00 	data16 cs nopw 0x0(%rax,%rax,1)
    a67c:	00 00 00 00
    a680:	66 66 2e 0f 1f 84 00 	data16 cs nopw 0x0(%rax,%rax,1)
    a687:	00 00 00 00
    a68b:	66 66 2e 0f 1f 84 00 	data16 cs nopw 0x0(%rax,%rax,1)
    a692:	00 00 00 00
    a696:	66 66 2e 0f 1f 84 00 	data16 cs nopw 0x0(%rax,%rax,1)
    a69d:	00 00 00 00
    a6a1:	66 66 2e 0f 1f 84 00 	data16 cs nopw 0x0(%rax,%rax,1)
    a6a8:	00 00 00 00
    a6ac:	66 66 2e 0f 1f 84 00 	data16 cs nopw 0x0(%rax,%rax,1)
    a6b3:	00 00 00 00
    a6b7:	66 66 2e 0f 1f 84 00 	data16 cs nopw 0x0(%rax,%rax,1)
    a6be:	00 00 00 00
    a6c2:	66 66 2e 0f 1f 84 00 	data16 cs nopw 0x0(%rax,%rax,1)
    a6c9:	00 00 00 00
    a6cd:	66 66 2e 0f 1f 84 00 	data16 cs nopw 0x0(%rax,%rax,1)
    a6d4:	00 00 00 00
    a6d8:	66 66 2e 0f 1f 84 00 	data16 cs nopw 0x0(%rax,%rax,1)
    a6df:	00 00 00 00
    a6e3:	66 66 2e 0f 1f 84 00 	data16 cs nopw 0x0(%rax,%rax,1)
    a6ea:	00 00 00 00
    a6ee:	66 66 2e 0f 1f 84 00 	data16 cs nopw 0x0(%rax,%rax,1)
    a6f5:	00 00 00 00
    a6f9:	66 66 2e 0f 1f 84 00 	data16 cs nopw 0x0(%rax,%rax,1)
    a700:	00 00 00 00
    a704:	66 66 2e 0f 1f 84 00 	data16 cs nopw 0x0(%rax,%rax,1)
    a70b:	00 00 00 00
    a70f:	66 66 2e 0f 1f 84 00 	data16 cs nopw 0x0(%rax,%rax,1)
    a716:	00 00 00 00
    a71a:	66 66 2e 0f 1f 84 00 	data16 cs nopw 0x0(%rax,%rax,1)
    a721:	00 00 00 00
    a725:	66 66 2e 0f 1f 84 00 	data16 cs nopw 0x0(%rax,%rax,1)
    a72c:	00 00 00 00
    a730:	66 66 2e 0f 1f 84 00 	data16 cs nopw 0x0(%rax,%rax,1)
    a737:	00 00 00 00
    a73b:	66 66 2e 0f 1f 84 00 	data16 cs nopw 0x0(%rax,%rax,1)
    a742:	00 00 00 00
    a746:	66 66 2e 0f 1f 84 00 	data16 cs nopw 0x0(%rax,%rax,1)
    a74d:	00 00 00 00
    a751:	66 66 2e 0f 1f 84 00 	data16 cs nopw 0x0(%rax,%rax,1)
    a758:	00 00 00 00
    a75c:	66 66 2e 0f 1f 84 00 	data16 cs nopw 0x0(%rax,%rax,1)
    a763:	00 00 00 00
    a767:	66 66 2e 0f 1f 84 00 	data16 cs nopw 0x0(%rax,%rax,1)
    a76e:	00 00 00 00
    a772:	66 66 2e 0f 1f 84 00 	data16 cs nopw 0x0(%rax,%rax,1)
    a779:	00 00 00 00
    a77d:	66 66 2e 0f 1f 84 00 	data16 cs nopw 0x0(%rax,%rax,1)
    a784:	00 00 00 00
    a788:	66 66 2e 0f 1f 84 00 	data16 cs nopw 0x0(%rax,%rax,1)
    a78f:	00 00 00 00
    a793:	66 66 2e 0f 1f 84 00 	data16 cs nopw 0x0(%rax,%rax,1)
    a79a:	00 00 00 00
    a79e:	66 66 2e 0f 1f 84 00 	data16 cs nopw 0x0(%rax,%rax,1)
    a7a5:	00 00 00 00
    a7a9:	66 66 2e 0f 1f 84 00 	data16 cs nopw 0x0(%rax,%rax,1)
    a7b0:	00 00 00 00
    a7b4:	66 66 2e 0f 1f 84 00 	data16 cs nopw 0x0(%rax,%rax,1)
    a7bb:	00 00 00 00
    a7bf:	66 66 2e 0f 1f 84 00 	data16 cs nopw 0x0(%rax,%rax,1)
    a7c6:	00 00 00 00
    a7ca:	66 66 2e 0f 1f 84 00 	data16 cs nopw 0x0(%rax,%rax,1)
    a7d1:	00 00 00 00
    a7d5:	66 66 2e 0f 1f 84 00 	data16 cs nopw 0x0(%rax,%rax,1)
    a7dc:	00 00 00 00
    a7e0:	66 66 2e 0f 1f 84 00 	data16 cs nopw 0x0(%rax,%rax,1)
    a7e7:	00 00 00 00
    a7eb:	66 66 2e 0f 1f 84 00 	data16 cs nopw 0x0(%rax,%rax,1)
    a7f2:	00 00 00 00
    a7f6:	66 66 2e 0f 1f 84 00 	data16 cs nopw 0x0(%rax,%rax,1)
    a7fd:	00 00 00 00
    a801:	66 66 2e 0f 1f 84 00 	data16 cs nopw 0x0(%rax,%rax,1)
    a808:	00 00 00 00
    a80c:	66 66 2e 0f 1f 84 00 	data16 cs nopw 0x0(%rax,%rax,1)
    a813:	00 00 00 00
    a817:	66 66 2e 0f 1f 84 00 	data16 cs nopw 0x0(%rax,%rax,1)
    a81e:	00 00 00 00
    a822:	66 66 2e 0f 1f 84 00 	data16 cs nopw 0x0(%rax,%rax,1)
    a829:	00 00 00 00
    a82d:	66 66 2e 0f 1f 84 00 	data16 cs nopw 0x0(%rax,%rax,1)
    a834:	00 00 00 00
    a838:	66 66 2e 0f 1f 84 00 	data16 cs nopw 0x0(%rax,%rax,1)
    a83f:	00 00 00 00
    a843:	66 66 2e 0f 1f 84 00 	data16 cs nopw 0x0(%rax,%rax,1)
    a84a:	00 00 00 00
    a84e:	66 66 2e 0f 1f 84 00 	data16 cs nopw 0x0(%rax,%rax,1)
    a855:	00 00 00 00
    a859:	66 66 2e 0f 1f 84 00 	data16 cs nopw 0x0(%rax,%rax,1)
    a860:	00 00 00 00
    a864:	66 66 2e 0f 1f 84 00 	data16 cs nopw 0x0(%rax,%rax,1)
    a86b:	00 00 00 00
    a86f:	66 66 2e 0f 1f 84 00 	data16 cs nopw 0x0(%rax,%rax,1)
    a876:	00 00 00 00
    a87a:	66 66 2e 0f 1f 84 00 	data16 cs nopw 0x0(%rax,%rax,1)
    a881:	00 00 00 00
    a885:	66 66 2e 0f 1f 84 00 	data16 cs nopw 0x0(%rax,%rax,1)
    a88c:	00 00 00 00
    a890:	66 66 2e 0f 1f 84 00 	data16 cs nopw 0x0(%rax,%rax,1)
    a897:	00 00 00 00
    a89b:	66 66 2e 0f 1f 84 00 	data16 cs nopw 0x0(%rax,%rax,1)
    a8a2:	00 00 00 00
    a8a6:	66 66 2e 0f 1f 84 00 	data16 cs nopw 0x0(%rax,%rax,1)
    a8ad:	00 00 00 00
    a8b1:	66 66 2e 0f 1f 84 00 	data16 cs nopw 0x0(%rax,%rax,1)
    a8b8:	00 00 00 00
    a8bc:	66 66 2e 0f 1f 84 00 	data16 cs nopw 0x0(%rax,%rax,1)
    a8c3:	00 00 00 00
    a8c7:	66 66 2e 0f 1f 84 00 	data16 cs nopw 0x0(%rax,%rax,1)
    a8ce:	00 00 00 00
    a8d2:	66 66 2e 0f 1f 84 00 	data16 cs nopw 0x0(%rax,%rax,1)
    a8d9:	00 00 00 00
    a8dd:	66 66 2e 0f 1f 84 00 	data16 cs nopw 0x0(%rax,%rax,1)
    a8e4:	00 00 00 00
    a8e8:	66 66 2e 0f 1f 84 00 	data16 cs nopw 0x0(%rax,%rax,1)
    a8ef:	00 00 00 00
    a8f3:	66 66 2e 0f 1f 84 00 	data16 cs nopw 0x0(%rax,%rax,1)
    a8fa:	00 00 00 00
    a8fe:	66 66 2e 0f 1f 84 00 	data16 cs nopw 0x0(%rax,%rax,1)
    a905:	00 00 00 00
    a909:	66 66 2e 0f 1f 84 00 	data16 cs nopw 0x0(%rax,%rax,1)
    a910:	00 00 00 00
    a914:	66 66 2e 0f 1f 84 00 	data16 cs nopw 0x0(%rax,%rax,1)
    a91b:	00 00 00 00
    a91f:	66 66 2e 0f 1f 84 00 	data16 cs nopw 0x0(%rax,%rax,1)
    a926:	00 00 00 00
    a92a:	66 66 2e 0f 1f 84 00 	data16 cs nopw 0x0(%rax,%rax,1)
    a931:	00 00 00 00
    a935:	66 66 2e 0f 1f 84 00 	data16 cs nopw 0x0(%rax,%rax,1)
    a93c:	00 00 00 00
    a940:	66 66 2e 0f 1f 84 00 	data16 cs nopw 0x0(%rax,%rax,1)
    a947:	00 00 00 00
    a94b:	66 66 2e 0f 1f 84 00 	data16 cs nopw 0x0(%rax,%rax,1)
    a952:	00 00 00 00
    a956:	66 66 2e 0f 1f 84 00 	data16 cs nopw 0x0(%rax,%rax,1)
    a95d:	00 00 00 00
    a961:	66 66 2e 0f 1f 84 00 	data16 cs nopw 0x0(%rax,%rax,1)
    a968:	00 00 00 00
    a96c:	66 66 2e 0f 1f 84 00 	data16 cs nopw 0x0(%rax,%rax,1)
    a973:	00 00 00 00
    a977:	66 66 2e 0f 1f 84 00 	data16 cs nopw 0x0(%rax,%rax,1)
    a97e:	00 00 00 00
    a982:	66 66 2e 0f 1f 84 00 	data16 cs nopw 0x0(%rax,%rax,1)
    a989:	00 00 00 00
    a98d:	66 66 2e 0f 1f 84 00 	data16 cs nopw 0x0(%rax,%rax,1)
    a994:	00 00 00 00
    a998:	66 66 2e 0f 1f 84 00 	data16 cs nopw 0x0(%rax,%rax,1)
    a99f:	00 00 00 00
    a9a3:	66 66 2e 0f 1f 84 00 	data16 cs nopw 0x0(%rax,%rax,1)
    a9aa:	00 00 00 00
    a9ae:	66 66 2e 0f 1f 84 00 	data16 cs nopw 0x0(%rax,%rax,1)
    a9b5:	00 00 00 00
    a9b9:	66 66 2e 0f 1f 84 00 	data16 cs nopw 0x0(%rax,%rax,1)
    a9c0:	00 00 00 00
    a9c4:	66 66 2e 0f 1f 84 00 	data16 cs nopw 0x0(%rax,%rax,1)
    a9cb:	00 00 00 00
    a9cf:	66 66 2e 0f 1f 84 00 	data16 cs nopw 0x0(%rax,%rax,1)
    a9d6:	00 00 00 00
    a9da:	66 66 2e 0f 1f 84 00 	data16 cs nopw 0x0(%rax,%rax,1)
    a9e1:	00 00 00 00
    a9e5:	66 66 2e 0f 1f 84 00 	data16 cs nopw 0x0(%rax,%rax,1)
    a9ec:	00 00 00 00
    a9f0:	66 66 2e 0f 1f 84 00 	data16 cs nopw 0x0(%rax,%rax,1)
    a9f7:	00 00 00 00
    a9fb:	66 66 2e 0f 1f 84 00 	data16 cs nopw 0x0(%rax,%rax,1)
    aa02:	00 00 00 00
    aa06:	66 66 2e 0f 1f 84 00 	data16 cs nopw 0x0(%rax,%rax,1)
    aa0d:	00 00 00 00
    aa11:	66 66 2e 0f 1f 84 00 	data16 cs nopw 0x0(%rax,%rax,1)
    aa18:	00 00 00 00
    aa1c:	66 66 2e 0f 1f 84 00 	data16 cs nopw 0x0(%rax,%rax,1)
    aa23:	00 00 00 00
    aa27:	66 66 2e 0f 1f 84 00 	data16 cs nopw 0x0(%rax,%rax,1)
    aa2e:	00 00 00 00
    aa32:	66 66 2e 0f 1f 84 00 	data16 cs nopw 0x0(%rax,%rax,1)
    aa39:	00 00 00 00
    aa3d:	66 66 2e 0f 1f 84 00 	data16 cs nopw 0x0(%rax,%rax,1)
    aa44:	00 00 00 00
    aa48:	66 66 2e 0f 1f 84 00 	data16 cs nopw 0x0(%rax,%rax,1)
    aa4f:	00 00 00 00
    aa53:	66 66 2e 0f 1f 84 00 	data16 cs nopw 0x0(%rax,%rax,1)
    aa5a:	00 00 00 00
    aa5e:	66 66 2e 0f 1f 84 00 	data16 cs nopw 0x0(%rax,%rax,1)
    aa65:	00 00 00 00
    aa69:	66 66 2e 0f 1f 84 00 	data16 cs nopw 0x0(%rax,%rax,1)
    aa70:	00 00 00 00
    aa74:	66 66 2e 0f 1f 84 00 	data16 cs nopw 0x0(%rax,%rax,1)
    aa7b:	00 00 00 00
    aa7f:	66 66 2e 0f 1f 84 00 	data16 cs nopw 0x0(%rax,%rax,1)
    aa86:	00 00 00 00
    aa8a:	66 66 2e 0f 1f 84 00 	data16 cs nopw 0x0(%rax,%rax,1)
    aa91:	00 00 00 00
    aa95:	66 66 2e 0f 1f 84 00 	data16 cs nopw 0x0(%rax,%rax,1)
    aa9c:	00 00 00 00
    aaa0:	66 66 2e 0f 1f 84 00 	data16 cs nopw 0x0(%rax,%rax,1)
    aaa7:	00 00 00 00
    aaab:	66 66 2e 0f 1f 84 00 	data16 cs nopw 0x0(%rax,%rax,1)
    aab2:	00 00 00 00
    aab6:	66 66 2e 0f 1f 84 00 	data16 cs nopw 0x0(%rax,%rax,1)
    aabd:	00 00 00 00
    aac1:	66 66 2e 0f 1f 84 00 	data16 cs nopw 0x0(%rax,%rax,1)
    aac8:	00 00 00 00
    aacc:	66 66 2e 0f 1f 84 00 	data16 cs nopw 0x0(%rax,%rax,1)
    aad3:	00 00 00 00
    aad7:	66 66 2e 0f 1f 84 00 	data16 cs nopw 0x0(%rax,%rax,1)
    aade:	00 00 00 00
    aae2:	66 66 2e 0f 1f 84 00 	data16 cs nopw 0x0(%rax,%rax,1)
    aae9:	00 00 00 00
    aaed:	66 66 2e 0f 1f 84 00 	data16 cs nopw 0x0(%rax,%rax,1)
    aaf4:	00 00 00 00
    aaf8:	66 66 2e 0f 1f 84 00 	data16 cs nopw 0x0(%rax,%rax,1)
    aaff:	00 00 00 00
    ab03:	66 66 2e 0f 1f 84 00 	data16 cs nopw 0x0(%rax,%rax,1)
    ab0a:	00 00 00 00
    ab0e:	66 66 2e 0f 1f 84 00 	data16 cs nopw 0x0(%rax,%rax,1)
    ab15:	00 00 00 00
    ab19:	66 66 2e 0f 1f 84 00 	data16 cs nopw 0x0(%rax,%rax,1)
    ab20:	00 00 00 00
    ab24:	66 66 2e 0f 1f 84 00 	data16 cs nopw 0x0(%rax,%rax,1)
    ab2b:	00 00 00 00
    ab2f:	66 66 2e 0f 1f 84 00 	data16 cs nopw 0x0(%rax,%rax,1)
    ab36:	00 00 00 00
    ab3a:	66 66 2e 0f 1f 84 00 	data16 cs nopw 0x0(%rax,%rax,1)
    ab41:	00 00 00 00
    ab45:	66 66 2e 0f 1f 84 00 	data16 cs nopw 0x0(%rax,%rax,1)
    ab4c:	00 00 00 00
    ab50:	66 66 2e 0f 1f 84 00 	data16 cs nopw 0x0(%rax,%rax,1)
    ab57:	00 00 00 00
    ab5b:	66 66 2e 0f 1f 84 00 	data16 cs nopw 0x0(%rax,%rax,1)
    ab62:	00 00 00 00
    ab66:	66 66 2e 0f 1f 84 00 	data16 cs nopw 0x0(%rax,%rax,1)
    ab6d:	00 00 00 00
    ab71:	66 66 2e 0f 1f 84 00 	data16 cs nopw 0x0(%rax,%rax,1)
    ab78:	00 00 00 00
    ab7c:	66 66 2e 0f 1f 84 00 	data16 cs nopw 0x0(%rax,%rax,1)
    ab83:	00 00 00 00
    ab87:	66 66 2e 0f 1f 84 00 	data16 cs nopw 0x0(%rax,%rax,1)
    ab8e:	00 00 00 00
    ab92:	66 66 2e 0f 1f 84 00 	data16 cs nopw 0x0(%rax,%rax,1)
    ab99:	00 00 00 00
    ab9d:	66 66 2e 0f 1f 84 00 	data16 cs nopw 0x0(%rax,%rax,1)
    aba4:	00 00 00 00
    aba8:	66 66 2e 0f 1f 84 00 	data16 cs nopw 0x0(%rax,%rax,1)
    abaf:	00 00 00 00
    abb3:	66 66 2e 0f 1f 84 00 	data16 cs nopw 0x0(%rax,%rax,1)
    abba:	00 00 00 00
    abbe:	66 66 2e 0f 1f 84 00 	data16 cs nopw 0x0(%rax,%rax,1)
    abc5:	00 00 00 00
    abc9:	66 66 2e 0f 1f 84 00 	data16 cs nopw 0x0(%rax,%rax,1)
    abd0:	00 00 00 00
    abd4:	66 66 2e 0f 1f 84 00 	data16 cs nopw 0x0(%rax,%rax,1)
    abdb:	00 00 00 00
    abdf:	66 66 2e 0f 1f 84 00 	data16 cs nopw 0x0(%rax,%rax,1)
    abe6:	00 00 00 00
    abea:	66 66 2e 0f 1f 84 00 	data16 cs nopw 0x0(%rax,%rax,1)
    abf1:	00 00 00 00
    abf5:	66 66 2e 0f 1f 84 00 	data16 cs nopw 0x0(%rax,%rax,1)
    abfc:	00 00 00 00
    ac00:	66 66 2e 0f 1f 84 00 	data16 cs nopw 0x0(%rax,%rax,1)
    ac07:	00 00 00 00
    ac0b:	66 66 2e 0f 1f 84 00 	data16 cs nopw 0x0(%rax,%rax,1)
    ac12:	00 00 00 00
    ac16:	66 66 2e 0f 1f 84 00 	data16 cs nopw 0x0(%rax,%rax,1)
    ac1d:	00 00 00 00
    ac21:	66 66 2e 0f 1f 84 00 	data16 cs nopw 0x0(%rax,%rax,1)
    ac28:	00 00 00 00
    ac2c:	66 66 2e 0f 1f 84 00 	data16 cs nopw 0x0(%rax,%rax,1)
    ac33:	00 00 00 00
    ac37:	66 66 2e 0f 1f 84 00 	data16 cs nopw 0x0(%rax,%rax,1)
    ac3e:	00 00 00 00
    ac42:	66 66 2e 0f 1f 84 00 	data16 cs nopw 0x0(%rax,%rax,1)
    ac49:	00 00 00 00
    ac4d:	66 66 2e 0f 1f 84 00 	data16 cs nopw 0x0(%rax,%rax,1)
    ac54:	00 00 00 00
    ac58:	66 66 2e 0f 1f 84 00 	data16 cs nopw 0x0(%rax,%rax,1)
    ac5f:	00 00 00 00
    ac63:	66 66 2e 0f 1f 84 00 	data16 cs nopw 0x0(%rax,%rax,1)
    ac6a:	00 00 00 00
    ac6e:	66 66 2e 0f 1f 84 00 	data16 cs nopw 0x0(%rax,%rax,1)
    ac75:	00 00 00 00
    ac79:	66 66 2e 0f 1f 84 00 	data16 cs nopw 0x0(%rax,%rax,1)
    ac80:	00 00 00 00
    ac84:	66 66 2e 0f 1f 84 00 	data16 cs nopw 0x0(%rax,%rax,1)
    ac8b:	00 00 00 00
    ac8f:	66 66 2e 0f 1f 84 00 	data16 cs nopw 0x0(%rax,%rax,1)
    ac96:	00 00 00 00
    ac9a:	66 66 2e 0f 1f 84 00 	data16 cs nopw 0x0(%rax,%rax,1)
    aca1:	00 00 00 00
    aca5:	66 66 2e 0f 1f 84 00 	data16 cs nopw 0x0(%rax,%rax,1)
    acac:	00 00 00 00
    acb0:	66 66 2e 0f 1f 84 00 	data16 cs nopw 0x0(%rax,%rax,1)
    acb7:	00 00 00 00
    acbb:	66 66 2e 0f 1f 84 00 	data16 cs nopw 0x0(%rax,%rax,1)
    acc2:	00 00 00 00
    acc6:	66 66 2e 0f 1f 84 00 	data16 cs nopw 0x0(%rax,%rax,1)
    accd:	00 00 00 00
    acd1:	66 66 2e 0f 1f 84 00 	data16 cs nopw 0x0(%rax,%rax,1)
    acd8:	00 00 00 00
    acdc:	66 66 2e 0f 1f 84 00 	data16 cs nopw 0x0(%rax,%rax,1)
    ace3:	00 00 00 00
    ace7:	66 66 2e 0f 1f 84 00 	data16 cs nopw 0x0(%rax,%rax,1)
    acee:	00 00 00 00
    acf2:	66 66 2e 0f 1f 84 00 	data16 cs nopw 0x0(%rax,%rax,1)
    acf9:	00 00 00 00
    acfd:	66 66 2e 0f 1f 84 00 	data16 cs nopw 0x0(%rax,%rax,1)
    ad04:	00 00 00 00
    ad08:	66 66 2e 0f 1f 84 00 	data16 cs nopw 0x0(%rax,%rax,1)
    ad0f:	00 00 00 00
    ad13:	66 66 2e 0f 1f 84 00 	data16 cs nopw 0x0(%rax,%rax,1)
    ad1a:	00 00 00 00
    ad1e:	66 66 2e 0f 1f 84 00 	data16 cs nopw 0x0(%rax,%rax,1)
    ad25:	00 00 00 00
    ad29:	66 66 2e 0f 1f 84 00 	data16 cs nopw 0x0(%rax,%rax,1)
    ad30:	00 00 00 00
    ad34:	66 66 2e 0f 1f 84 00 	data16 cs nopw 0x0(%rax,%rax,1)
    ad3b:	00 00 00 00
    ad3f:	66 66 2e 0f 1f 84 00 	data16 cs nopw 0x0(%rax,%rax,1)
    ad46:	00 00 00 00
    ad4a:	66 66 2e 0f 1f 84 00 	data16 cs nopw 0x0(%rax,%rax,1)
    ad51:	00 00 00 00
    ad55:	66 66 2e 0f 1f 84 00 	data16 cs nopw 0x0(%rax,%rax,1)
    ad5c:	00 00 00 00
    ad60:	66 66 2e 0f 1f 84 00 	data16 cs nopw 0x0(%rax,%rax,1)
    ad67:	00 00 00 00
    ad6b:	66 66 2e 0f 1f 84 00 	data16 cs nopw 0x0(%rax,%rax,1)
    ad72:	00 00 00 00
    ad76:	66 66 2e 0f 1f 84 00 	data16 cs nopw 0x0(%rax,%rax,1)
    ad7d:	00 00 00 00
    ad81:	66 66 2e 0f 1f 84 00 	data16 cs nopw 0x0(%rax,%rax,1)
    ad88:	00 00 00 00
    ad8c:	66 66 2e 0f 1f 84 00 	data16 cs nopw 0x0(%rax,%rax,1)
    ad93:	00 00 00 00
    ad97:	66 66 2e 0f 1f 84 00 	data16 cs nopw 0x0(%rax,%rax,1)
    ad9e:	00 00 00 00
    ada2:	66 66 2e 0f 1f 84 00 	data16 cs nopw 0x0(%rax,%rax,1)
    ada9:	00 00 00 00
    adad:	66 66 2e 0f 1f 84 00 	data16 cs nopw 0x0(%rax,%rax,1)
    adb4:	00 00 00 00
    adb8:	66 66 2e 0f 1f 84 00 	data16 cs nopw 0x0(%rax,%rax,1)
    adbf:	00 00 00 00
    adc3:	66 66 2e 0f 1f 84 00 	data16 cs nopw 0x0(%rax,%rax,1)
    adca:	00 00 00 00
    adce:	66 66 2e 0f 1f 84 00 	data16 cs nopw 0x0(%rax,%rax,1)
    add5:	00 00 00 00
    add9:	66 66 2e 0f 1f 84 00 	data16 cs nopw 0x0(%rax,%rax,1)
    ade0:	00 00 00 00
    ade4:	66 66 2e 0f 1f 84 00 	data16 cs nopw 0x0(%rax,%rax,1)
    adeb:	00 00 00 00
    adef:	66 66 2e 0f 1f 84 00 	data16 cs nopw 0x0(%rax,%rax,1)
    adf6:	00 00 00 00
    adfa:	66 66 2e 0f 1f 84 00 	data16 cs nopw 0x0(%rax,%rax,1)
    ae01:	00 00 00 00
    ae05:	66 66 2e 0f 1f 84 00 	data16 cs nopw 0x0(%rax,%rax,1)
    ae0c:	00 00 00 00
    ae10:	66 66 2e 0f 1f 84 00 	data16 cs nopw 0x0(%rax,%rax,1)
    ae17:	00 00 00 00
    ae1b:	66 66 2e 0f 1f 84 00 	data16 cs nopw 0x0(%rax,%rax,1)
    ae22:	00 00 00 00
    ae26:	66 66 2e 0f 1f 84 00 	data16 cs nopw 0x0(%rax,%rax,1)
    ae2d:	00 00 00 00
    ae31:	66 66 2e 0f 1f 84 00 	data16 cs nopw 0x0(%rax,%rax,1)
    ae38:	00 00 00 00
    ae3c:	66 66 2e 0f 1f 84 00 	data16 cs nopw 0x0(%rax,%rax,1)
    ae43:	00 00 00 00
    ae47:	66 66 2e 0f 1f 84 00 	data16 cs nopw 0x0(%rax,%rax,1)
    ae4e:	00 00 00 00
    ae52:	66 66 2e 0f 1f 84 00 	data16 cs nopw 0x0(%rax,%rax,1)
    ae59:	00 00 00 00
    ae5d:	66 66 2e 0f 1f 84 00 	data16 cs nopw 0x0(%rax,%rax,1)
    ae64:	00 00 00 00
    ae68:	66 66 2e 0f 1f 84 00 	data16 cs nopw 0x0(%rax,%rax,1)
    ae6f:	00 00 00 00
    ae73:	66 66 2e 0f 1f 84 00 	data16 cs nopw 0x0(%rax,%rax,1)
    ae7a:	00 00 00 00
    ae7e:	66 66 2e 0f 1f 84 00 	data16 cs nopw 0x0(%rax,%rax,1)
    ae85:	00 00 00 00
    ae89:	66 66 2e 0f 1f 84 00 	data16 cs nopw 0x0(%rax,%rax,1)
    ae90:	00 00 00 00
    ae94:	66 66 2e 0f 1f 84 00 	data16 cs nopw 0x0(%rax,%rax,1)
    ae9b:	00 00 00 00
    ae9f:	66 66 2e 0f 1f 84 00 	data16 cs nopw 0x0(%rax,%rax,1)
    aea6:	00 00 00 00
    aeaa:	66 66 2e 0f 1f 84 00 	data16 cs nopw 0x0(%rax,%rax,1)
    aeb1:	00 00 00 00
    aeb5:	66 66 2e 0f 1f 84 00 	data16 cs nopw 0x0(%rax,%rax,1)
    aebc:	00 00 00 00
    aec0:	66 66 2e 0f 1f 84 00 	data16 cs nopw 0x0(%rax,%rax,1)
    aec7:	00 00 00 00
    aecb:	66 66 2e 0f 1f 84 00 	data16 cs nopw 0x0(%rax,%rax,1)
    aed2:	00 00 00 00
    aed6:	66 66 2e 0f 1f 84 00 	data16 cs nopw 0x0(%rax,%rax,1)
    aedd:	00 00 00 00
    aee1:	66 66 2e 0f 1f 84 00 	data16 cs nopw 0x0(%rax,%rax,1)
    aee8:	00 00 00 00
    aeec:	66 66 2e 0f 1f 84 00 	data16 cs nopw 0x0(%rax,%rax,1)
    aef3:	00 00 00 00
    aef7:	66 66 2e 0f 1f 84 00 	data16 cs nopw 0x0(%rax,%rax,1)
    aefe:	00 00 00 00
    af02:	66 66 2e 0f 1f 84 00 	data16 cs nopw 0x0(%rax,%rax,1)
    af09:	00 00 00 00
    af0d:	66 66 2e 0f 1f 84 00 	data16 cs nopw 0x0(%rax,%rax,1)
    af14:	00 00 00 00
    af18:	66 66 2e 0f 1f 84 00 	data16 cs nopw 0x0(%rax,%rax,1)
    af1f:	00 00 00 00
    af23:	66 66 2e 0f 1f 84 00 	data16 cs nopw 0x0(%rax,%rax,1)
    af2a:	00 00 00 00
    af2e:	66 66 2e 0f 1f 84 00 	data16 cs nopw 0x0(%rax,%rax,1)
    af35:	00 00 00 00
    af39:	66 66 2e 0f 1f 84 00 	data16 cs nopw 0x0(%rax,%rax,1)
    af40:	00 00 00 00
    af44:	66 66 2e 0f 1f 84 00 	data16 cs nopw 0x0(%rax,%rax,1)
    af4b:	00 00 00 00
    af4f:	66 66 2e 0f 1f 84 00 	data16 cs nopw 0x0(%rax,%rax,1)
    af56:	00 00 00 00
    af5a:	66 66 2e 0f 1f 84 00 	data16 cs nopw 0x0(%rax,%rax,1)
    af61:	00 00 00 00
    af65:	66 66 2e 0f 1f 84 00 	data16 cs nopw 0x0(%rax,%rax,1)
    af6c:	00 00 00 00
    af70:	66 66 2e 0f 1f 84 00 	data16 cs nopw 0x0(%rax,%rax,1)
    af77:	00 00 00 00
    af7b:	66 66 2e 0f 1f 84 00 	data16 cs nopw 0x0(%rax,%rax,1)
    af82:	00 00 00 00
    af86:	66 66 2e 0f 1f 84 00 	data16 cs nopw 0x0(%rax,%rax,1)
    af8d:	00 00 00 00
    af91:	66 66 2e 0f 1f 84 00 	data16 cs nopw 0x0(%rax,%rax,1)
    af98:	00 00 00 00
    af9c:	66 66 2e 0f 1f 84 00 	data16 cs nopw 0x0(%rax,%rax,1)
    afa3:	00 00 00 00
    afa7:	66 66 2e 0f 1f 84 00 	data16 cs nopw 0x0(%rax,%rax,1)
    afae:	00 00 00 00
    afb2:	66 66 2e 0f 1f 84 00 	data16 cs nopw 0x0(%rax,%rax,1)
    afb9:	00 00 00 00
    afbd:	66 66 2e 0f 1f 84 00 	data16 cs nopw 0x0(%rax,%rax,1)
    afc4:	00 00 00 00
    afc8:	66 66 2e 0f 1f 84 00 	data16 cs nopw 0x0(%rax,%rax,1)
    afcf:	00 00 00 00
    afd3:	66 66 2e 0f 1f 84 00 	data16 cs nopw 0x0(%rax,%rax,1)
    afda:	00 00 00 00
    afde:	66 66 2e 0f 1f 84 00 	data16 cs nopw 0x0(%rax,%rax,1)
    afe5:	00 00 00 00
    afe9:	66 66 2e 0f 1f 84 00 	data16 cs nopw 0x0(%rax,%rax,1)
    aff0:	00 00 00 00
    aff4:	66 66 2e 0f 1f 84 00 	data16 cs nopw 0x0(%rax,%rax,1)
    affb:	00 00 00 00
    afff:	90                   	nop

000000000000b000 <pd>:
    b000:	83 00 00             	addl   $0x0,(%rax)
    b003:	00 00                	add    %al,(%rax)
    b005:	00 00                	add    %al,(%rax)
	...

000000000000b008 <waitdisk>:
  entry();
}

void
waitdisk(void)
{
    b008:	f3 0f 1e fa          	endbr64
#pragma once

static inline uint8_t inb(uint16_t port) {
  uint8_t data;
  __asm__ volatile("inb %1,%0" : "=a"(data) : "d"(port));
    b00c:	ba f7 01 00 00       	mov    $0x1f7,%edx
    b011:	ec                   	in     (%dx),%al
  // Wait for disk ready.
  while((inb(0x1F7) & 0xC0) != 0x40)
    b012:	83 e0 c0             	and    $0xffffffc0,%eax
    b015:	3c 40                	cmp    $0x40,%al
    b017:	75 f8                	jne    b011 <waitdisk+0x9>
    ;
}
    b019:	c3                   	ret

000000000000b01a <readsect>:

// Read a single sector at offset into dst.
void
readsect(void *dst, uint32_t offset)
{
    b01a:	f3 0f 1e fa          	endbr64
    b01e:	55                   	push   %rbp
    b01f:	48 89 e5             	mov    %rsp,%rbp
    b022:	41 54                	push   %r12
    b024:	53                   	push   %rbx
    b025:	49 89 fc             	mov    %rdi,%r12
    b028:	89 f3                	mov    %esi,%ebx
  // Issue command.
  waitdisk();
    b02a:	e8 d9 ff ff ff       	call   b008 <waitdisk>
  return data;
}

static inline void outb(uint16_t port, uint8_t data) {
  __asm__ volatile("outb %0,%1" : : "a"(data), "d"(port));
    b02f:	b8 01 00 00 00       	mov    $0x1,%eax
    b034:	ba f2 01 00 00       	mov    $0x1f2,%edx
    b039:	ee                   	out    %al,(%dx)
    b03a:	ba f3 01 00 00       	mov    $0x1f3,%edx
    b03f:	89 d8                	mov    %ebx,%eax
    b041:	ee                   	out    %al,(%dx)
  outb(0x1F2, 1);   // count = 1
  outb(0x1F3, offset);
  outb(0x1F4, offset >> 8);
    b042:	89 d8                	mov    %ebx,%eax
    b044:	c1 e8 08             	shr    $0x8,%eax
    b047:	ba f4 01 00 00       	mov    $0x1f4,%edx
    b04c:	ee                   	out    %al,(%dx)
  outb(0x1F5, offset >> 16);
    b04d:	89 d8                	mov    %ebx,%eax
    b04f:	c1 e8 10             	shr    $0x10,%eax
    b052:	ba f5 01 00 00       	mov    $0x1f5,%edx
    b057:	ee                   	out    %al,(%dx)
  outb(0x1F6, (offset >> 24) | 0xE0);
    b058:	89 d8                	mov    %ebx,%eax
    b05a:	c1 e8 18             	shr    $0x18,%eax
    b05d:	83 c8 e0             	or     $0xffffffe0,%eax
    b060:	ba f6 01 00 00       	mov    $0x1f6,%edx
    b065:	ee                   	out    %al,(%dx)
    b066:	b8 20 00 00 00       	mov    $0x20,%eax
    b06b:	ba f7 01 00 00       	mov    $0x1f7,%edx
    b070:	ee                   	out    %al,(%dx)
  outb(0x1F7, 0x20);  // cmd 0x20 - read sectors

  // Read data.
  waitdisk();
    b071:	e8 92 ff ff ff       	call   b008 <waitdisk>
}

static inline void insl(int port, void *addr, int cnt) {
  __asm__ volatile("cld; rep insl"
    b076:	4c 89 e7             	mov    %r12,%rdi
    b079:	b9 80 00 00 00       	mov    $0x80,%ecx
    b07e:	ba f0 01 00 00       	mov    $0x1f0,%edx
    b083:	fc                   	cld
    b084:	f3 6d                	rep insl (%dx),%es:(%rdi)
  insl(0x1F0, dst, SECTSIZE/4);
}
    b086:	5b                   	pop    %rbx
    b087:	41 5c                	pop    %r12
    b089:	5d                   	pop    %rbp
    b08a:	c3                   	ret

000000000000b08b <readseg>:

// Read 'count' bytes at 'offset' from kernel into physical address 'pa'.
// Might copy more than asked.
void
readseg(uint8_t* pa, uint32_t count, uint32_t offset)
{
    b08b:	f3 0f 1e fa          	endbr64
    b08f:	55                   	push   %rbp
    b090:	48 89 e5             	mov    %rsp,%rbp
    b093:	41 55                	push   %r13
    b095:	41 54                	push   %r12
    b097:	53                   	push   %rbx
    b098:	48 83 ec 08          	sub    $0x8,%rsp
    b09c:	48 89 fb             	mov    %rdi,%rbx
    b09f:	41 89 d4             	mov    %edx,%r12d
  uint8_t* epa;

  epa = pa + count;
    b0a2:	89 f6                	mov    %esi,%esi
    b0a4:	4c 8d 2c 37          	lea    (%rdi,%rsi,1),%r13

  // Round down to sector boundary.
  pa -= offset % SECTSIZE;
    b0a8:	89 d0                	mov    %edx,%eax
    b0aa:	25 ff 01 00 00       	and    $0x1ff,%eax
    b0af:	48 29 c3             	sub    %rax,%rbx

  // Translate from bytes to sectors; kernel starts at sector 1.
  offset = (offset / SECTSIZE) + 1;
    b0b2:	41 c1 ec 09          	shr    $0x9,%r12d
    b0b6:	41 83 c4 01          	add    $0x1,%r12d

  // If this is too slow, we could read lots of sectors at a time.
  // We'd write more to memory than asked, but it doesn't matter --
  // we load in increasing order.
  for(; pa < epa; pa += SECTSIZE, offset++)
    b0ba:	4c 39 eb             	cmp    %r13,%rbx
    b0bd:	73 1b                	jae    b0da <readseg+0x4f>
    readsect(pa, offset);
    b0bf:	44 89 e6             	mov    %r12d,%esi
    b0c2:	48 89 df             	mov    %rbx,%rdi
    b0c5:	e8 50 ff ff ff       	call   b01a <readsect>
  for(; pa < epa; pa += SECTSIZE, offset++)
    b0ca:	48 81 c3 00 02 00 00 	add    $0x200,%rbx
    b0d1:	41 83 c4 01          	add    $0x1,%r12d
    b0d5:	4c 39 eb             	cmp    %r13,%rbx
    b0d8:	72 e5                	jb     b0bf <readseg+0x34>
}
    b0da:	48 83 c4 08          	add    $0x8,%rsp
    b0de:	5b                   	pop    %rbx
    b0df:	41 5c                	pop    %r12
    b0e1:	41 5d                	pop    %r13
    b0e3:	5d                   	pop    %rbp
    b0e4:	c3                   	ret

000000000000b0e5 <bootmain>:
{
    b0e5:	f3 0f 1e fa          	endbr64
    b0e9:	55                   	push   %rbp
    b0ea:	48 89 e5             	mov    %rsp,%rbp
    b0ed:	41 56                	push   %r14
    b0ef:	41 55                	push   %r13
    b0f1:	41 54                	push   %r12
    b0f3:	53                   	push   %rbx
  readseg((uint8_t*)elf, 4096, 0);
    b0f4:	ba 00 00 00 00       	mov    $0x0,%edx
    b0f9:	be 00 10 00 00       	mov    $0x1000,%esi
    b0fe:	bf 00 00 01 00       	mov    $0x10000,%edi
    b103:	e8 83 ff ff ff       	call   b08b <readseg>
  if(elf->magic != ELF_MAGIC)
    b108:	81 3c 25 00 00 01 00 	cmpl   $0x464c457f,0x10000
    b10f:	7f 45 4c 46
    b113:	75 69                	jne    b17e <bootmain+0x99>
  ph = (struct proghdr*)((uint8_t*)elf + elf->phoff);
    b115:	8b 1c 25 1c 00 01 00 	mov    0x1001c,%ebx
    b11c:	48 81 c3 00 00 01 00 	add    $0x10000,%rbx
  eph = ph + elf->phnum;
    b123:	44 0f b7 2c 25 2c 00 	movzwl 0x1002c,%r13d
    b12a:	01 00
    b12c:	49 c1 e5 05          	shl    $0x5,%r13
    b130:	49 01 dd             	add    %rbx,%r13
  for(; ph < eph; ph++){
    b133:	4c 39 eb             	cmp    %r13,%rbx
    b136:	73 3d                	jae    b175 <bootmain+0x90>
                   : "d"(port), "0"(addr), "1"(cnt)
                   : "memory");
}

static inline void stosb(void *addr, int data, int cnt) {
  __asm__ volatile("cld; rep stosb"
    b138:	41 be 00 00 00 00    	mov    $0x0,%r14d
    b13e:	eb 09                	jmp    b149 <bootmain+0x64>
    b140:	48 83 c3 20          	add    $0x20,%rbx
    b144:	4c 39 eb             	cmp    %r13,%rbx
    b147:	73 2c                	jae    b175 <bootmain+0x90>
    pa = (uint8_t*)(uintptr_t)ph->paddr;
    b149:	44 8b 63 0c          	mov    0xc(%rbx),%r12d
    readseg(pa, ph->filesz, ph->off);
    b14d:	8b 53 04             	mov    0x4(%rbx),%edx
    b150:	8b 73 10             	mov    0x10(%rbx),%esi
    b153:	4c 89 e7             	mov    %r12,%rdi
    b156:	e8 30 ff ff ff       	call   b08b <readseg>
    if(ph->memsz > ph->filesz)
    b15b:	8b 4b 14             	mov    0x14(%rbx),%ecx
    b15e:	8b 43 10             	mov    0x10(%rbx),%eax
    b161:	39 c8                	cmp    %ecx,%eax
    b163:	73 db                	jae    b140 <bootmain+0x5b>
      stosb(pa + ph->filesz, 0, ph->memsz - ph->filesz);
    b165:	89 c2                	mov    %eax,%edx
    b167:	49 8d 3c 14          	lea    (%r12,%rdx,1),%rdi
    b16b:	29 c1                	sub    %eax,%ecx
    b16d:	44 89 f0             	mov    %r14d,%eax
    b170:	fc                   	cld
    b171:	f3 aa                	rep stos %al,%es:(%rdi)
                   : "=D"(addr), "=c"(cnt)
                   : "0"(addr), "1"(cnt), "a"(data)
                   : "memory");
}
    b173:	eb cb                	jmp    b140 <bootmain+0x5b>
  entry = (void(*)(void))(uintptr_t)(elf->entry);
    b175:	8b 04 25 18 00 01 00 	mov    0x10018,%eax
  entry();
    b17c:	ff d0                	call   *%rax
}
    b17e:	5b                   	pop    %rbx
    b17f:	41 5c                	pop    %r12
    b181:	41 5d                	pop    %r13
    b183:	41 5e                	pop    %r14
    b185:	5d                   	pop    %rbp
    b186:	c3                   	ret
