
bootblock.o:     file format elf64-x86-64


Disassembly of section .text:

0000000000007c00 <start-0x400>:
    7c00:	66 2e 0f 1f 84 00 00 	cs nopw 0x0(%rax,%rax,1)
    7c07:	00 00 00 
    7c0a:	66 2e 0f 1f 84 00 00 	cs nopw 0x0(%rax,%rax,1)
    7c11:	00 00 00 
    7c14:	66 2e 0f 1f 84 00 00 	cs nopw 0x0(%rax,%rax,1)
    7c1b:	00 00 00 
    7c1e:	66 2e 0f 1f 84 00 00 	cs nopw 0x0(%rax,%rax,1)
    7c25:	00 00 00 
    7c28:	66 2e 0f 1f 84 00 00 	cs nopw 0x0(%rax,%rax,1)
    7c2f:	00 00 00 
    7c32:	66 2e 0f 1f 84 00 00 	cs nopw 0x0(%rax,%rax,1)
    7c39:	00 00 00 
    7c3c:	66 2e 0f 1f 84 00 00 	cs nopw 0x0(%rax,%rax,1)
    7c43:	00 00 00 
    7c46:	66 2e 0f 1f 84 00 00 	cs nopw 0x0(%rax,%rax,1)
    7c4d:	00 00 00 
    7c50:	66 2e 0f 1f 84 00 00 	cs nopw 0x0(%rax,%rax,1)
    7c57:	00 00 00 
    7c5a:	66 2e 0f 1f 84 00 00 	cs nopw 0x0(%rax,%rax,1)
    7c61:	00 00 00 
    7c64:	66 2e 0f 1f 84 00 00 	cs nopw 0x0(%rax,%rax,1)
    7c6b:	00 00 00 
    7c6e:	66 2e 0f 1f 84 00 00 	cs nopw 0x0(%rax,%rax,1)
    7c75:	00 00 00 
    7c78:	66 2e 0f 1f 84 00 00 	cs nopw 0x0(%rax,%rax,1)
    7c7f:	00 00 00 
    7c82:	66 2e 0f 1f 84 00 00 	cs nopw 0x0(%rax,%rax,1)
    7c89:	00 00 00 
    7c8c:	66 2e 0f 1f 84 00 00 	cs nopw 0x0(%rax,%rax,1)
    7c93:	00 00 00 
    7c96:	66 2e 0f 1f 84 00 00 	cs nopw 0x0(%rax,%rax,1)
    7c9d:	00 00 00 
    7ca0:	66 2e 0f 1f 84 00 00 	cs nopw 0x0(%rax,%rax,1)
    7ca7:	00 00 00 
    7caa:	66 2e 0f 1f 84 00 00 	cs nopw 0x0(%rax,%rax,1)
    7cb1:	00 00 00 
    7cb4:	66 2e 0f 1f 84 00 00 	cs nopw 0x0(%rax,%rax,1)
    7cbb:	00 00 00 
    7cbe:	66 2e 0f 1f 84 00 00 	cs nopw 0x0(%rax,%rax,1)
    7cc5:	00 00 00 
    7cc8:	66 2e 0f 1f 84 00 00 	cs nopw 0x0(%rax,%rax,1)
    7ccf:	00 00 00 
    7cd2:	66 2e 0f 1f 84 00 00 	cs nopw 0x0(%rax,%rax,1)
    7cd9:	00 00 00 
    7cdc:	66 2e 0f 1f 84 00 00 	cs nopw 0x0(%rax,%rax,1)
    7ce3:	00 00 00 
    7ce6:	66 2e 0f 1f 84 00 00 	cs nopw 0x0(%rax,%rax,1)
    7ced:	00 00 00 
    7cf0:	66 2e 0f 1f 84 00 00 	cs nopw 0x0(%rax,%rax,1)
    7cf7:	00 00 00 
    7cfa:	66 2e 0f 1f 84 00 00 	cs nopw 0x0(%rax,%rax,1)
    7d01:	00 00 00 
    7d04:	66 2e 0f 1f 84 00 00 	cs nopw 0x0(%rax,%rax,1)
    7d0b:	00 00 00 
    7d0e:	66 2e 0f 1f 84 00 00 	cs nopw 0x0(%rax,%rax,1)
    7d15:	00 00 00 
    7d18:	66 2e 0f 1f 84 00 00 	cs nopw 0x0(%rax,%rax,1)
    7d1f:	00 00 00 
    7d22:	66 2e 0f 1f 84 00 00 	cs nopw 0x0(%rax,%rax,1)
    7d29:	00 00 00 
    7d2c:	66 2e 0f 1f 84 00 00 	cs nopw 0x0(%rax,%rax,1)
    7d33:	00 00 00 
    7d36:	66 2e 0f 1f 84 00 00 	cs nopw 0x0(%rax,%rax,1)
    7d3d:	00 00 00 
    7d40:	66 2e 0f 1f 84 00 00 	cs nopw 0x0(%rax,%rax,1)
    7d47:	00 00 00 
    7d4a:	66 2e 0f 1f 84 00 00 	cs nopw 0x0(%rax,%rax,1)
    7d51:	00 00 00 
    7d54:	66 2e 0f 1f 84 00 00 	cs nopw 0x0(%rax,%rax,1)
    7d5b:	00 00 00 
    7d5e:	66 2e 0f 1f 84 00 00 	cs nopw 0x0(%rax,%rax,1)
    7d65:	00 00 00 
    7d68:	66 2e 0f 1f 84 00 00 	cs nopw 0x0(%rax,%rax,1)
    7d6f:	00 00 00 
    7d72:	66 2e 0f 1f 84 00 00 	cs nopw 0x0(%rax,%rax,1)
    7d79:	00 00 00 
    7d7c:	66 2e 0f 1f 84 00 00 	cs nopw 0x0(%rax,%rax,1)
    7d83:	00 00 00 
    7d86:	66 2e 0f 1f 84 00 00 	cs nopw 0x0(%rax,%rax,1)
    7d8d:	00 00 00 
    7d90:	66 2e 0f 1f 84 00 00 	cs nopw 0x0(%rax,%rax,1)
    7d97:	00 00 00 
    7d9a:	66 2e 0f 1f 84 00 00 	cs nopw 0x0(%rax,%rax,1)
    7da1:	00 00 00 
    7da4:	66 2e 0f 1f 84 00 00 	cs nopw 0x0(%rax,%rax,1)
    7dab:	00 00 00 
    7dae:	66 2e 0f 1f 84 00 00 	cs nopw 0x0(%rax,%rax,1)
    7db5:	00 00 00 
    7db8:	66 2e 0f 1f 84 00 00 	cs nopw 0x0(%rax,%rax,1)
    7dbf:	00 00 00 
    7dc2:	66 2e 0f 1f 84 00 00 	cs nopw 0x0(%rax,%rax,1)
    7dc9:	00 00 00 
    7dcc:	66 2e 0f 1f 84 00 00 	cs nopw 0x0(%rax,%rax,1)
    7dd3:	00 00 00 
    7dd6:	66 2e 0f 1f 84 00 00 	cs nopw 0x0(%rax,%rax,1)
    7ddd:	00 00 00 
    7de0:	66 2e 0f 1f 84 00 00 	cs nopw 0x0(%rax,%rax,1)
    7de7:	00 00 00 
    7dea:	66 2e 0f 1f 84 00 00 	cs nopw 0x0(%rax,%rax,1)
    7df1:	00 00 00 
    7df4:	66 2e 0f 1f 84 00 00 	cs nopw 0x0(%rax,%rax,1)
    7dfb:	00 00 00 
    7dfe:	66 2e 0f 1f 84 00 00 	cs nopw 0x0(%rax,%rax,1)
    7e05:	00 00 00 
    7e08:	66 2e 0f 1f 84 00 00 	cs nopw 0x0(%rax,%rax,1)
    7e0f:	00 00 00 
    7e12:	66 2e 0f 1f 84 00 00 	cs nopw 0x0(%rax,%rax,1)
    7e19:	00 00 00 
    7e1c:	66 2e 0f 1f 84 00 00 	cs nopw 0x0(%rax,%rax,1)
    7e23:	00 00 00 
    7e26:	66 2e 0f 1f 84 00 00 	cs nopw 0x0(%rax,%rax,1)
    7e2d:	00 00 00 
    7e30:	66 2e 0f 1f 84 00 00 	cs nopw 0x0(%rax,%rax,1)
    7e37:	00 00 00 
    7e3a:	66 2e 0f 1f 84 00 00 	cs nopw 0x0(%rax,%rax,1)
    7e41:	00 00 00 
    7e44:	66 2e 0f 1f 84 00 00 	cs nopw 0x0(%rax,%rax,1)
    7e4b:	00 00 00 
    7e4e:	66 2e 0f 1f 84 00 00 	cs nopw 0x0(%rax,%rax,1)
    7e55:	00 00 00 
    7e58:	66 2e 0f 1f 84 00 00 	cs nopw 0x0(%rax,%rax,1)
    7e5f:	00 00 00 
    7e62:	66 2e 0f 1f 84 00 00 	cs nopw 0x0(%rax,%rax,1)
    7e69:	00 00 00 
    7e6c:	66 2e 0f 1f 84 00 00 	cs nopw 0x0(%rax,%rax,1)
    7e73:	00 00 00 
    7e76:	66 2e 0f 1f 84 00 00 	cs nopw 0x0(%rax,%rax,1)
    7e7d:	00 00 00 
    7e80:	66 2e 0f 1f 84 00 00 	cs nopw 0x0(%rax,%rax,1)
    7e87:	00 00 00 
    7e8a:	66 2e 0f 1f 84 00 00 	cs nopw 0x0(%rax,%rax,1)
    7e91:	00 00 00 
    7e94:	66 2e 0f 1f 84 00 00 	cs nopw 0x0(%rax,%rax,1)
    7e9b:	00 00 00 
    7e9e:	66 2e 0f 1f 84 00 00 	cs nopw 0x0(%rax,%rax,1)
    7ea5:	00 00 00 
    7ea8:	66 2e 0f 1f 84 00 00 	cs nopw 0x0(%rax,%rax,1)
    7eaf:	00 00 00 
    7eb2:	66 2e 0f 1f 84 00 00 	cs nopw 0x0(%rax,%rax,1)
    7eb9:	00 00 00 
    7ebc:	66 2e 0f 1f 84 00 00 	cs nopw 0x0(%rax,%rax,1)
    7ec3:	00 00 00 
    7ec6:	66 2e 0f 1f 84 00 00 	cs nopw 0x0(%rax,%rax,1)
    7ecd:	00 00 00 
    7ed0:	66 2e 0f 1f 84 00 00 	cs nopw 0x0(%rax,%rax,1)
    7ed7:	00 00 00 
    7eda:	66 2e 0f 1f 84 00 00 	cs nopw 0x0(%rax,%rax,1)
    7ee1:	00 00 00 
    7ee4:	66 2e 0f 1f 84 00 00 	cs nopw 0x0(%rax,%rax,1)
    7eeb:	00 00 00 
    7eee:	66 2e 0f 1f 84 00 00 	cs nopw 0x0(%rax,%rax,1)
    7ef5:	00 00 00 
    7ef8:	66 2e 0f 1f 84 00 00 	cs nopw 0x0(%rax,%rax,1)
    7eff:	00 00 00 
    7f02:	66 2e 0f 1f 84 00 00 	cs nopw 0x0(%rax,%rax,1)
    7f09:	00 00 00 
    7f0c:	66 2e 0f 1f 84 00 00 	cs nopw 0x0(%rax,%rax,1)
    7f13:	00 00 00 
    7f16:	66 2e 0f 1f 84 00 00 	cs nopw 0x0(%rax,%rax,1)
    7f1d:	00 00 00 
    7f20:	66 2e 0f 1f 84 00 00 	cs nopw 0x0(%rax,%rax,1)
    7f27:	00 00 00 
    7f2a:	66 2e 0f 1f 84 00 00 	cs nopw 0x0(%rax,%rax,1)
    7f31:	00 00 00 
    7f34:	66 2e 0f 1f 84 00 00 	cs nopw 0x0(%rax,%rax,1)
    7f3b:	00 00 00 
    7f3e:	66 2e 0f 1f 84 00 00 	cs nopw 0x0(%rax,%rax,1)
    7f45:	00 00 00 
    7f48:	66 2e 0f 1f 84 00 00 	cs nopw 0x0(%rax,%rax,1)
    7f4f:	00 00 00 
    7f52:	66 2e 0f 1f 84 00 00 	cs nopw 0x0(%rax,%rax,1)
    7f59:	00 00 00 
    7f5c:	66 2e 0f 1f 84 00 00 	cs nopw 0x0(%rax,%rax,1)
    7f63:	00 00 00 
    7f66:	66 2e 0f 1f 84 00 00 	cs nopw 0x0(%rax,%rax,1)
    7f6d:	00 00 00 
    7f70:	66 2e 0f 1f 84 00 00 	cs nopw 0x0(%rax,%rax,1)
    7f77:	00 00 00 
    7f7a:	66 2e 0f 1f 84 00 00 	cs nopw 0x0(%rax,%rax,1)
    7f81:	00 00 00 
    7f84:	66 2e 0f 1f 84 00 00 	cs nopw 0x0(%rax,%rax,1)
    7f8b:	00 00 00 
    7f8e:	66 2e 0f 1f 84 00 00 	cs nopw 0x0(%rax,%rax,1)
    7f95:	00 00 00 
    7f98:	66 2e 0f 1f 84 00 00 	cs nopw 0x0(%rax,%rax,1)
    7f9f:	00 00 00 
    7fa2:	66 2e 0f 1f 84 00 00 	cs nopw 0x0(%rax,%rax,1)
    7fa9:	00 00 00 
    7fac:	66 2e 0f 1f 84 00 00 	cs nopw 0x0(%rax,%rax,1)
    7fb3:	00 00 00 
    7fb6:	66 2e 0f 1f 84 00 00 	cs nopw 0x0(%rax,%rax,1)
    7fbd:	00 00 00 
    7fc0:	66 2e 0f 1f 84 00 00 	cs nopw 0x0(%rax,%rax,1)
    7fc7:	00 00 00 
    7fca:	66 2e 0f 1f 84 00 00 	cs nopw 0x0(%rax,%rax,1)
    7fd1:	00 00 00 
    7fd4:	66 2e 0f 1f 84 00 00 	cs nopw 0x0(%rax,%rax,1)
    7fdb:	00 00 00 
    7fde:	66 2e 0f 1f 84 00 00 	cs nopw 0x0(%rax,%rax,1)
    7fe5:	00 00 00 
    7fe8:	66 2e 0f 1f 84 00 00 	cs nopw 0x0(%rax,%rax,1)
    7fef:	00 00 00 
    7ff2:	66 2e 0f 1f 84 00 00 	cs nopw 0x0(%rax,%rax,1)
    7ff9:	00 00 00 
    7ffc:	0f 1f 40 00          	nopl   0x0(%rax)

0000000000008000 <start>:
# 64-bit segment descriptor helper provided by asm.h

.code16
.globl start
start:
    cli
    8000:	fa                   	cli
    xorw %ax,%ax
    8001:	31 c0                	xor    %eax,%eax
    movw %ax,%ds
    8003:	8e d8                	mov    %eax,%ds
    movw %ax,%es
    8005:	8e c0                	mov    %eax,%es
    movw %ax,%ss
    8007:	8e d0                	mov    %eax,%ss

    # Enable access to memory above 1MB
    ENABLE_A20
    8009:	e4 64                	in     $0x64,%al
    800b:	a8 02                	test   $0x2,%al
    800d:	75 fa                	jne    8009 <start+0x9>
    800f:	b0 d1                	mov    $0xd1,%al
    8011:	e6 64                	out    %al,$0x64
    8013:	e4 64                	in     $0x64,%al
    8015:	a8 02                	test   $0x2,%al
    8017:	75 fa                	jne    8013 <start+0x13>
    8019:	b0 df                	mov    $0xdf,%al
    801b:	e6 60                	out    %al,$0x60

    SETUP_PROT_MODE(gdtdesc32, 1<<3, prot32)
    801d:	0f 01 16             	lgdt   (%rsi)
    8020:	a4                   	movsb  (%rsi),(%rdi)
    8021:	80 0f 20             	orb    $0x20,(%rdi)
    8024:	c0 66 83 c8          	shlb   $0xc8,-0x7d(%rsi)
    8028:	01 0f                	add    %ecx,(%rdi)
    802a:	22 c0                	and    %al,%al
    802c:	ea                   	(bad)
    802d:	31                   	.byte 0x31
    802e:	80 08 00             	orb    $0x0,(%rax)

0000000000008031 <prot32>:

.code32
prot32:
    INIT_PROT_MODE_DATA(2<<3)
    8031:	66 b8 10 00          	mov    $0x10,%ax
    8035:	8e d8                	mov    %eax,%ds
    8037:	8e c0                	mov    %eax,%es
    8039:	8e d0                	mov    %eax,%ss
    803b:	66 b8 00 00          	mov    $0x0,%ax
    803f:	8e e0                	mov    %eax,%fs
    8041:	8e e8                	mov    %eax,%gs

    lgdt gdtdesc64
    8043:	0f 01 15 c4 80 00 00 	lgdt   0x80c4(%rip)        # 1010e <_end+0x4e66>

    movl %cr4,%eax
    804a:	0f 20 e0             	mov    %cr4,%rax
    orl $CR4_PAE,%eax
    804d:	83 c8 20             	or     $0x20,%eax
    movl %eax,%cr4
    8050:	0f 22 e0             	mov    %rax,%cr4

    movl $pml4,%eax
    8053:	b8 00 90 00 00       	mov    $0x9000,%eax
    movl %eax,%cr3
    8058:	0f 22 d8             	mov    %rax,%cr3

    movl $0xC0000080,%ecx
    805b:	b9 80 00 00 c0       	mov    $0xc0000080,%ecx
    rdmsr
    8060:	0f 32                	rdmsr
    orl $0x00000100,%eax
    8062:	0d 00 01 00 00       	or     $0x100,%eax
    wrmsr
    8067:	0f 30                	wrmsr

    movl %cr0,%eax
    8069:	0f 20 c0             	mov    %cr0,%rax
    orl $(CR0_PE|CR0_PG|CR0_WP),%eax
    806c:	0d 01 00 01 80       	or     $0x80010001,%eax
    movl %eax,%cr0
    8071:	0f 22 c0             	mov    %rax,%cr0

    ljmp $(3<<3), $longmode
    8074:	ea                   	(bad)
    8075:	7b 80                	jnp    7ff7 <start-0x9>
    8077:	00 00                	add    %al,(%rax)
    8079:	18 00                	sbb    %al,(%rax)

000000000000807b <longmode>:

.code64
longmode:
    mov $start,%rsp
    807b:	48 c7 c4 00 80 00 00 	mov    $0x8000,%rsp
    call bootmain
    8082:	e8 29 30 00 00       	call   b0b0 <bootmain>
1:  jmp 1b
    8087:	eb fe                	jmp    8087 <longmode+0xc>
    8089:	0f 1f 00             	nopl   (%rax)

000000000000808c <gdt32>:
	...
    8094:	ff                   	(bad)
    8095:	ff 00                	incl   (%rax)
    8097:	00 00                	add    %al,(%rax)
    8099:	9a                   	(bad)
    809a:	cf                   	iret
    809b:	00 ff                	add    %bh,%bh
    809d:	ff 00                	incl   (%rax)
    809f:	00 00                	add    %al,(%rax)
    80a1:	92                   	xchg   %eax,%edx
    80a2:	cf                   	iret
	...

00000000000080a4 <gdtdesc32>:
    80a4:	17                   	(bad)
    80a5:	00 8c 80 00 00 90 90 	add    %cl,-0x6f700000(%rax,%rax,4)

00000000000080ac <gdt64>:
	...
    80b4:	ff                   	(bad)
    80b5:	ff 00                	incl   (%rax)
    80b7:	00 00                	add    %al,(%rax)
    80b9:	9a                   	(bad)
    80ba:	af                   	scas   (%rdi),%eax
    80bb:	00 ff                	add    %bh,%bh
    80bd:	ff 00                	incl   (%rax)
    80bf:	00 00                	add    %al,(%rax)
    80c1:	92                   	xchg   %eax,%edx
    80c2:	af                   	scas   (%rdi),%eax
	...

00000000000080c4 <gdtdesc64>:
    80c4:	17                   	(bad)
    80c5:	00 ac 80 00 00 00 00 	add    %ch,0x0(%rax,%rax,4)
    80cc:	00 00                	add    %al,(%rax)
    80ce:	90                   	nop
    80cf:	e9 2c 0f 00 00       	jmp    9000 <pml4>
    80d4:	90                   	nop
    80d5:	66 66 2e 0f 1f 84 00 	data16 cs nopw 0x0(%rax,%rax,1)
    80dc:	00 00 00 00 
    80e0:	66 66 2e 0f 1f 84 00 	data16 cs nopw 0x0(%rax,%rax,1)
    80e7:	00 00 00 00 
    80eb:	66 66 2e 0f 1f 84 00 	data16 cs nopw 0x0(%rax,%rax,1)
    80f2:	00 00 00 00 
    80f6:	66 66 2e 0f 1f 84 00 	data16 cs nopw 0x0(%rax,%rax,1)
    80fd:	00 00 00 00 
    8101:	66 66 2e 0f 1f 84 00 	data16 cs nopw 0x0(%rax,%rax,1)
    8108:	00 00 00 00 
    810c:	66 66 2e 0f 1f 84 00 	data16 cs nopw 0x0(%rax,%rax,1)
    8113:	00 00 00 00 
    8117:	66 66 2e 0f 1f 84 00 	data16 cs nopw 0x0(%rax,%rax,1)
    811e:	00 00 00 00 
    8122:	66 66 2e 0f 1f 84 00 	data16 cs nopw 0x0(%rax,%rax,1)
    8129:	00 00 00 00 
    812d:	66 66 2e 0f 1f 84 00 	data16 cs nopw 0x0(%rax,%rax,1)
    8134:	00 00 00 00 
    8138:	66 66 2e 0f 1f 84 00 	data16 cs nopw 0x0(%rax,%rax,1)
    813f:	00 00 00 00 
    8143:	66 66 2e 0f 1f 84 00 	data16 cs nopw 0x0(%rax,%rax,1)
    814a:	00 00 00 00 
    814e:	66 66 2e 0f 1f 84 00 	data16 cs nopw 0x0(%rax,%rax,1)
    8155:	00 00 00 00 
    8159:	66 66 2e 0f 1f 84 00 	data16 cs nopw 0x0(%rax,%rax,1)
    8160:	00 00 00 00 
    8164:	66 66 2e 0f 1f 84 00 	data16 cs nopw 0x0(%rax,%rax,1)
    816b:	00 00 00 00 
    816f:	66 66 2e 0f 1f 84 00 	data16 cs nopw 0x0(%rax,%rax,1)
    8176:	00 00 00 00 
    817a:	66 66 2e 0f 1f 84 00 	data16 cs nopw 0x0(%rax,%rax,1)
    8181:	00 00 00 00 
    8185:	66 66 2e 0f 1f 84 00 	data16 cs nopw 0x0(%rax,%rax,1)
    818c:	00 00 00 00 
    8190:	66 66 2e 0f 1f 84 00 	data16 cs nopw 0x0(%rax,%rax,1)
    8197:	00 00 00 00 
    819b:	66 66 2e 0f 1f 84 00 	data16 cs nopw 0x0(%rax,%rax,1)
    81a2:	00 00 00 00 
    81a6:	66 66 2e 0f 1f 84 00 	data16 cs nopw 0x0(%rax,%rax,1)
    81ad:	00 00 00 00 
    81b1:	66 66 2e 0f 1f 84 00 	data16 cs nopw 0x0(%rax,%rax,1)
    81b8:	00 00 00 00 
    81bc:	66 66 2e 0f 1f 84 00 	data16 cs nopw 0x0(%rax,%rax,1)
    81c3:	00 00 00 00 
    81c7:	66 66 2e 0f 1f 84 00 	data16 cs nopw 0x0(%rax,%rax,1)
    81ce:	00 00 00 00 
    81d2:	66 66 2e 0f 1f 84 00 	data16 cs nopw 0x0(%rax,%rax,1)
    81d9:	00 00 00 00 
    81dd:	66 66 2e 0f 1f 84 00 	data16 cs nopw 0x0(%rax,%rax,1)
    81e4:	00 00 00 00 
    81e8:	66 66 2e 0f 1f 84 00 	data16 cs nopw 0x0(%rax,%rax,1)
    81ef:	00 00 00 00 
    81f3:	66 66 2e 0f 1f 84 00 	data16 cs nopw 0x0(%rax,%rax,1)
    81fa:	00 00 00 00 
    81fe:	66 66 2e 0f 1f 84 00 	data16 cs nopw 0x0(%rax,%rax,1)
    8205:	00 00 00 00 
    8209:	66 66 2e 0f 1f 84 00 	data16 cs nopw 0x0(%rax,%rax,1)
    8210:	00 00 00 00 
    8214:	66 66 2e 0f 1f 84 00 	data16 cs nopw 0x0(%rax,%rax,1)
    821b:	00 00 00 00 
    821f:	66 66 2e 0f 1f 84 00 	data16 cs nopw 0x0(%rax,%rax,1)
    8226:	00 00 00 00 
    822a:	66 66 2e 0f 1f 84 00 	data16 cs nopw 0x0(%rax,%rax,1)
    8231:	00 00 00 00 
    8235:	66 66 2e 0f 1f 84 00 	data16 cs nopw 0x0(%rax,%rax,1)
    823c:	00 00 00 00 
    8240:	66 66 2e 0f 1f 84 00 	data16 cs nopw 0x0(%rax,%rax,1)
    8247:	00 00 00 00 
    824b:	66 66 2e 0f 1f 84 00 	data16 cs nopw 0x0(%rax,%rax,1)
    8252:	00 00 00 00 
    8256:	66 66 2e 0f 1f 84 00 	data16 cs nopw 0x0(%rax,%rax,1)
    825d:	00 00 00 00 
    8261:	66 66 2e 0f 1f 84 00 	data16 cs nopw 0x0(%rax,%rax,1)
    8268:	00 00 00 00 
    826c:	66 66 2e 0f 1f 84 00 	data16 cs nopw 0x0(%rax,%rax,1)
    8273:	00 00 00 00 
    8277:	66 66 2e 0f 1f 84 00 	data16 cs nopw 0x0(%rax,%rax,1)
    827e:	00 00 00 00 
    8282:	66 66 2e 0f 1f 84 00 	data16 cs nopw 0x0(%rax,%rax,1)
    8289:	00 00 00 00 
    828d:	66 66 2e 0f 1f 84 00 	data16 cs nopw 0x0(%rax,%rax,1)
    8294:	00 00 00 00 
    8298:	66 66 2e 0f 1f 84 00 	data16 cs nopw 0x0(%rax,%rax,1)
    829f:	00 00 00 00 
    82a3:	66 66 2e 0f 1f 84 00 	data16 cs nopw 0x0(%rax,%rax,1)
    82aa:	00 00 00 00 
    82ae:	66 66 2e 0f 1f 84 00 	data16 cs nopw 0x0(%rax,%rax,1)
    82b5:	00 00 00 00 
    82b9:	66 66 2e 0f 1f 84 00 	data16 cs nopw 0x0(%rax,%rax,1)
    82c0:	00 00 00 00 
    82c4:	66 66 2e 0f 1f 84 00 	data16 cs nopw 0x0(%rax,%rax,1)
    82cb:	00 00 00 00 
    82cf:	66 66 2e 0f 1f 84 00 	data16 cs nopw 0x0(%rax,%rax,1)
    82d6:	00 00 00 00 
    82da:	66 66 2e 0f 1f 84 00 	data16 cs nopw 0x0(%rax,%rax,1)
    82e1:	00 00 00 00 
    82e5:	66 66 2e 0f 1f 84 00 	data16 cs nopw 0x0(%rax,%rax,1)
    82ec:	00 00 00 00 
    82f0:	66 66 2e 0f 1f 84 00 	data16 cs nopw 0x0(%rax,%rax,1)
    82f7:	00 00 00 00 
    82fb:	66 66 2e 0f 1f 84 00 	data16 cs nopw 0x0(%rax,%rax,1)
    8302:	00 00 00 00 
    8306:	66 66 2e 0f 1f 84 00 	data16 cs nopw 0x0(%rax,%rax,1)
    830d:	00 00 00 00 
    8311:	66 66 2e 0f 1f 84 00 	data16 cs nopw 0x0(%rax,%rax,1)
    8318:	00 00 00 00 
    831c:	66 66 2e 0f 1f 84 00 	data16 cs nopw 0x0(%rax,%rax,1)
    8323:	00 00 00 00 
    8327:	66 66 2e 0f 1f 84 00 	data16 cs nopw 0x0(%rax,%rax,1)
    832e:	00 00 00 00 
    8332:	66 66 2e 0f 1f 84 00 	data16 cs nopw 0x0(%rax,%rax,1)
    8339:	00 00 00 00 
    833d:	66 66 2e 0f 1f 84 00 	data16 cs nopw 0x0(%rax,%rax,1)
    8344:	00 00 00 00 
    8348:	66 66 2e 0f 1f 84 00 	data16 cs nopw 0x0(%rax,%rax,1)
    834f:	00 00 00 00 
    8353:	66 66 2e 0f 1f 84 00 	data16 cs nopw 0x0(%rax,%rax,1)
    835a:	00 00 00 00 
    835e:	66 66 2e 0f 1f 84 00 	data16 cs nopw 0x0(%rax,%rax,1)
    8365:	00 00 00 00 
    8369:	66 66 2e 0f 1f 84 00 	data16 cs nopw 0x0(%rax,%rax,1)
    8370:	00 00 00 00 
    8374:	66 66 2e 0f 1f 84 00 	data16 cs nopw 0x0(%rax,%rax,1)
    837b:	00 00 00 00 
    837f:	66 66 2e 0f 1f 84 00 	data16 cs nopw 0x0(%rax,%rax,1)
    8386:	00 00 00 00 
    838a:	66 66 2e 0f 1f 84 00 	data16 cs nopw 0x0(%rax,%rax,1)
    8391:	00 00 00 00 
    8395:	66 66 2e 0f 1f 84 00 	data16 cs nopw 0x0(%rax,%rax,1)
    839c:	00 00 00 00 
    83a0:	66 66 2e 0f 1f 84 00 	data16 cs nopw 0x0(%rax,%rax,1)
    83a7:	00 00 00 00 
    83ab:	66 66 2e 0f 1f 84 00 	data16 cs nopw 0x0(%rax,%rax,1)
    83b2:	00 00 00 00 
    83b6:	66 66 2e 0f 1f 84 00 	data16 cs nopw 0x0(%rax,%rax,1)
    83bd:	00 00 00 00 
    83c1:	66 66 2e 0f 1f 84 00 	data16 cs nopw 0x0(%rax,%rax,1)
    83c8:	00 00 00 00 
    83cc:	66 66 2e 0f 1f 84 00 	data16 cs nopw 0x0(%rax,%rax,1)
    83d3:	00 00 00 00 
    83d7:	66 66 2e 0f 1f 84 00 	data16 cs nopw 0x0(%rax,%rax,1)
    83de:	00 00 00 00 
    83e2:	66 66 2e 0f 1f 84 00 	data16 cs nopw 0x0(%rax,%rax,1)
    83e9:	00 00 00 00 
    83ed:	66 66 2e 0f 1f 84 00 	data16 cs nopw 0x0(%rax,%rax,1)
    83f4:	00 00 00 00 
    83f8:	66 66 2e 0f 1f 84 00 	data16 cs nopw 0x0(%rax,%rax,1)
    83ff:	00 00 00 00 
    8403:	66 66 2e 0f 1f 84 00 	data16 cs nopw 0x0(%rax,%rax,1)
    840a:	00 00 00 00 
    840e:	66 66 2e 0f 1f 84 00 	data16 cs nopw 0x0(%rax,%rax,1)
    8415:	00 00 00 00 
    8419:	66 66 2e 0f 1f 84 00 	data16 cs nopw 0x0(%rax,%rax,1)
    8420:	00 00 00 00 
    8424:	66 66 2e 0f 1f 84 00 	data16 cs nopw 0x0(%rax,%rax,1)
    842b:	00 00 00 00 
    842f:	66 66 2e 0f 1f 84 00 	data16 cs nopw 0x0(%rax,%rax,1)
    8436:	00 00 00 00 
    843a:	66 66 2e 0f 1f 84 00 	data16 cs nopw 0x0(%rax,%rax,1)
    8441:	00 00 00 00 
    8445:	66 66 2e 0f 1f 84 00 	data16 cs nopw 0x0(%rax,%rax,1)
    844c:	00 00 00 00 
    8450:	66 66 2e 0f 1f 84 00 	data16 cs nopw 0x0(%rax,%rax,1)
    8457:	00 00 00 00 
    845b:	66 66 2e 0f 1f 84 00 	data16 cs nopw 0x0(%rax,%rax,1)
    8462:	00 00 00 00 
    8466:	66 66 2e 0f 1f 84 00 	data16 cs nopw 0x0(%rax,%rax,1)
    846d:	00 00 00 00 
    8471:	66 66 2e 0f 1f 84 00 	data16 cs nopw 0x0(%rax,%rax,1)
    8478:	00 00 00 00 
    847c:	66 66 2e 0f 1f 84 00 	data16 cs nopw 0x0(%rax,%rax,1)
    8483:	00 00 00 00 
    8487:	66 66 2e 0f 1f 84 00 	data16 cs nopw 0x0(%rax,%rax,1)
    848e:	00 00 00 00 
    8492:	66 66 2e 0f 1f 84 00 	data16 cs nopw 0x0(%rax,%rax,1)
    8499:	00 00 00 00 
    849d:	66 66 2e 0f 1f 84 00 	data16 cs nopw 0x0(%rax,%rax,1)
    84a4:	00 00 00 00 
    84a8:	66 66 2e 0f 1f 84 00 	data16 cs nopw 0x0(%rax,%rax,1)
    84af:	00 00 00 00 
    84b3:	66 66 2e 0f 1f 84 00 	data16 cs nopw 0x0(%rax,%rax,1)
    84ba:	00 00 00 00 
    84be:	66 66 2e 0f 1f 84 00 	data16 cs nopw 0x0(%rax,%rax,1)
    84c5:	00 00 00 00 
    84c9:	66 66 2e 0f 1f 84 00 	data16 cs nopw 0x0(%rax,%rax,1)
    84d0:	00 00 00 00 
    84d4:	66 66 2e 0f 1f 84 00 	data16 cs nopw 0x0(%rax,%rax,1)
    84db:	00 00 00 00 
    84df:	66 66 2e 0f 1f 84 00 	data16 cs nopw 0x0(%rax,%rax,1)
    84e6:	00 00 00 00 
    84ea:	66 66 2e 0f 1f 84 00 	data16 cs nopw 0x0(%rax,%rax,1)
    84f1:	00 00 00 00 
    84f5:	66 66 2e 0f 1f 84 00 	data16 cs nopw 0x0(%rax,%rax,1)
    84fc:	00 00 00 00 
    8500:	66 66 2e 0f 1f 84 00 	data16 cs nopw 0x0(%rax,%rax,1)
    8507:	00 00 00 00 
    850b:	66 66 2e 0f 1f 84 00 	data16 cs nopw 0x0(%rax,%rax,1)
    8512:	00 00 00 00 
    8516:	66 66 2e 0f 1f 84 00 	data16 cs nopw 0x0(%rax,%rax,1)
    851d:	00 00 00 00 
    8521:	66 66 2e 0f 1f 84 00 	data16 cs nopw 0x0(%rax,%rax,1)
    8528:	00 00 00 00 
    852c:	66 66 2e 0f 1f 84 00 	data16 cs nopw 0x0(%rax,%rax,1)
    8533:	00 00 00 00 
    8537:	66 66 2e 0f 1f 84 00 	data16 cs nopw 0x0(%rax,%rax,1)
    853e:	00 00 00 00 
    8542:	66 66 2e 0f 1f 84 00 	data16 cs nopw 0x0(%rax,%rax,1)
    8549:	00 00 00 00 
    854d:	66 66 2e 0f 1f 84 00 	data16 cs nopw 0x0(%rax,%rax,1)
    8554:	00 00 00 00 
    8558:	66 66 2e 0f 1f 84 00 	data16 cs nopw 0x0(%rax,%rax,1)
    855f:	00 00 00 00 
    8563:	66 66 2e 0f 1f 84 00 	data16 cs nopw 0x0(%rax,%rax,1)
    856a:	00 00 00 00 
    856e:	66 66 2e 0f 1f 84 00 	data16 cs nopw 0x0(%rax,%rax,1)
    8575:	00 00 00 00 
    8579:	66 66 2e 0f 1f 84 00 	data16 cs nopw 0x0(%rax,%rax,1)
    8580:	00 00 00 00 
    8584:	66 66 2e 0f 1f 84 00 	data16 cs nopw 0x0(%rax,%rax,1)
    858b:	00 00 00 00 
    858f:	66 66 2e 0f 1f 84 00 	data16 cs nopw 0x0(%rax,%rax,1)
    8596:	00 00 00 00 
    859a:	66 66 2e 0f 1f 84 00 	data16 cs nopw 0x0(%rax,%rax,1)
    85a1:	00 00 00 00 
    85a5:	66 66 2e 0f 1f 84 00 	data16 cs nopw 0x0(%rax,%rax,1)
    85ac:	00 00 00 00 
    85b0:	66 66 2e 0f 1f 84 00 	data16 cs nopw 0x0(%rax,%rax,1)
    85b7:	00 00 00 00 
    85bb:	66 66 2e 0f 1f 84 00 	data16 cs nopw 0x0(%rax,%rax,1)
    85c2:	00 00 00 00 
    85c6:	66 66 2e 0f 1f 84 00 	data16 cs nopw 0x0(%rax,%rax,1)
    85cd:	00 00 00 00 
    85d1:	66 66 2e 0f 1f 84 00 	data16 cs nopw 0x0(%rax,%rax,1)
    85d8:	00 00 00 00 
    85dc:	66 66 2e 0f 1f 84 00 	data16 cs nopw 0x0(%rax,%rax,1)
    85e3:	00 00 00 00 
    85e7:	66 66 2e 0f 1f 84 00 	data16 cs nopw 0x0(%rax,%rax,1)
    85ee:	00 00 00 00 
    85f2:	66 66 2e 0f 1f 84 00 	data16 cs nopw 0x0(%rax,%rax,1)
    85f9:	00 00 00 00 
    85fd:	66 66 2e 0f 1f 84 00 	data16 cs nopw 0x0(%rax,%rax,1)
    8604:	00 00 00 00 
    8608:	66 66 2e 0f 1f 84 00 	data16 cs nopw 0x0(%rax,%rax,1)
    860f:	00 00 00 00 
    8613:	66 66 2e 0f 1f 84 00 	data16 cs nopw 0x0(%rax,%rax,1)
    861a:	00 00 00 00 
    861e:	66 66 2e 0f 1f 84 00 	data16 cs nopw 0x0(%rax,%rax,1)
    8625:	00 00 00 00 
    8629:	66 66 2e 0f 1f 84 00 	data16 cs nopw 0x0(%rax,%rax,1)
    8630:	00 00 00 00 
    8634:	66 66 2e 0f 1f 84 00 	data16 cs nopw 0x0(%rax,%rax,1)
    863b:	00 00 00 00 
    863f:	66 66 2e 0f 1f 84 00 	data16 cs nopw 0x0(%rax,%rax,1)
    8646:	00 00 00 00 
    864a:	66 66 2e 0f 1f 84 00 	data16 cs nopw 0x0(%rax,%rax,1)
    8651:	00 00 00 00 
    8655:	66 66 2e 0f 1f 84 00 	data16 cs nopw 0x0(%rax,%rax,1)
    865c:	00 00 00 00 
    8660:	66 66 2e 0f 1f 84 00 	data16 cs nopw 0x0(%rax,%rax,1)
    8667:	00 00 00 00 
    866b:	66 66 2e 0f 1f 84 00 	data16 cs nopw 0x0(%rax,%rax,1)
    8672:	00 00 00 00 
    8676:	66 66 2e 0f 1f 84 00 	data16 cs nopw 0x0(%rax,%rax,1)
    867d:	00 00 00 00 
    8681:	66 66 2e 0f 1f 84 00 	data16 cs nopw 0x0(%rax,%rax,1)
    8688:	00 00 00 00 
    868c:	66 66 2e 0f 1f 84 00 	data16 cs nopw 0x0(%rax,%rax,1)
    8693:	00 00 00 00 
    8697:	66 66 2e 0f 1f 84 00 	data16 cs nopw 0x0(%rax,%rax,1)
    869e:	00 00 00 00 
    86a2:	66 66 2e 0f 1f 84 00 	data16 cs nopw 0x0(%rax,%rax,1)
    86a9:	00 00 00 00 
    86ad:	66 66 2e 0f 1f 84 00 	data16 cs nopw 0x0(%rax,%rax,1)
    86b4:	00 00 00 00 
    86b8:	66 66 2e 0f 1f 84 00 	data16 cs nopw 0x0(%rax,%rax,1)
    86bf:	00 00 00 00 
    86c3:	66 66 2e 0f 1f 84 00 	data16 cs nopw 0x0(%rax,%rax,1)
    86ca:	00 00 00 00 
    86ce:	66 66 2e 0f 1f 84 00 	data16 cs nopw 0x0(%rax,%rax,1)
    86d5:	00 00 00 00 
    86d9:	66 66 2e 0f 1f 84 00 	data16 cs nopw 0x0(%rax,%rax,1)
    86e0:	00 00 00 00 
    86e4:	66 66 2e 0f 1f 84 00 	data16 cs nopw 0x0(%rax,%rax,1)
    86eb:	00 00 00 00 
    86ef:	66 66 2e 0f 1f 84 00 	data16 cs nopw 0x0(%rax,%rax,1)
    86f6:	00 00 00 00 
    86fa:	66 66 2e 0f 1f 84 00 	data16 cs nopw 0x0(%rax,%rax,1)
    8701:	00 00 00 00 
    8705:	66 66 2e 0f 1f 84 00 	data16 cs nopw 0x0(%rax,%rax,1)
    870c:	00 00 00 00 
    8710:	66 66 2e 0f 1f 84 00 	data16 cs nopw 0x0(%rax,%rax,1)
    8717:	00 00 00 00 
    871b:	66 66 2e 0f 1f 84 00 	data16 cs nopw 0x0(%rax,%rax,1)
    8722:	00 00 00 00 
    8726:	66 66 2e 0f 1f 84 00 	data16 cs nopw 0x0(%rax,%rax,1)
    872d:	00 00 00 00 
    8731:	66 66 2e 0f 1f 84 00 	data16 cs nopw 0x0(%rax,%rax,1)
    8738:	00 00 00 00 
    873c:	66 66 2e 0f 1f 84 00 	data16 cs nopw 0x0(%rax,%rax,1)
    8743:	00 00 00 00 
    8747:	66 66 2e 0f 1f 84 00 	data16 cs nopw 0x0(%rax,%rax,1)
    874e:	00 00 00 00 
    8752:	66 66 2e 0f 1f 84 00 	data16 cs nopw 0x0(%rax,%rax,1)
    8759:	00 00 00 00 
    875d:	66 66 2e 0f 1f 84 00 	data16 cs nopw 0x0(%rax,%rax,1)
    8764:	00 00 00 00 
    8768:	66 66 2e 0f 1f 84 00 	data16 cs nopw 0x0(%rax,%rax,1)
    876f:	00 00 00 00 
    8773:	66 66 2e 0f 1f 84 00 	data16 cs nopw 0x0(%rax,%rax,1)
    877a:	00 00 00 00 
    877e:	66 66 2e 0f 1f 84 00 	data16 cs nopw 0x0(%rax,%rax,1)
    8785:	00 00 00 00 
    8789:	66 66 2e 0f 1f 84 00 	data16 cs nopw 0x0(%rax,%rax,1)
    8790:	00 00 00 00 
    8794:	66 66 2e 0f 1f 84 00 	data16 cs nopw 0x0(%rax,%rax,1)
    879b:	00 00 00 00 
    879f:	66 66 2e 0f 1f 84 00 	data16 cs nopw 0x0(%rax,%rax,1)
    87a6:	00 00 00 00 
    87aa:	66 66 2e 0f 1f 84 00 	data16 cs nopw 0x0(%rax,%rax,1)
    87b1:	00 00 00 00 
    87b5:	66 66 2e 0f 1f 84 00 	data16 cs nopw 0x0(%rax,%rax,1)
    87bc:	00 00 00 00 
    87c0:	66 66 2e 0f 1f 84 00 	data16 cs nopw 0x0(%rax,%rax,1)
    87c7:	00 00 00 00 
    87cb:	66 66 2e 0f 1f 84 00 	data16 cs nopw 0x0(%rax,%rax,1)
    87d2:	00 00 00 00 
    87d6:	66 66 2e 0f 1f 84 00 	data16 cs nopw 0x0(%rax,%rax,1)
    87dd:	00 00 00 00 
    87e1:	66 66 2e 0f 1f 84 00 	data16 cs nopw 0x0(%rax,%rax,1)
    87e8:	00 00 00 00 
    87ec:	66 66 2e 0f 1f 84 00 	data16 cs nopw 0x0(%rax,%rax,1)
    87f3:	00 00 00 00 
    87f7:	66 66 2e 0f 1f 84 00 	data16 cs nopw 0x0(%rax,%rax,1)
    87fe:	00 00 00 00 
    8802:	66 66 2e 0f 1f 84 00 	data16 cs nopw 0x0(%rax,%rax,1)
    8809:	00 00 00 00 
    880d:	66 66 2e 0f 1f 84 00 	data16 cs nopw 0x0(%rax,%rax,1)
    8814:	00 00 00 00 
    8818:	66 66 2e 0f 1f 84 00 	data16 cs nopw 0x0(%rax,%rax,1)
    881f:	00 00 00 00 
    8823:	66 66 2e 0f 1f 84 00 	data16 cs nopw 0x0(%rax,%rax,1)
    882a:	00 00 00 00 
    882e:	66 66 2e 0f 1f 84 00 	data16 cs nopw 0x0(%rax,%rax,1)
    8835:	00 00 00 00 
    8839:	66 66 2e 0f 1f 84 00 	data16 cs nopw 0x0(%rax,%rax,1)
    8840:	00 00 00 00 
    8844:	66 66 2e 0f 1f 84 00 	data16 cs nopw 0x0(%rax,%rax,1)
    884b:	00 00 00 00 
    884f:	66 66 2e 0f 1f 84 00 	data16 cs nopw 0x0(%rax,%rax,1)
    8856:	00 00 00 00 
    885a:	66 66 2e 0f 1f 84 00 	data16 cs nopw 0x0(%rax,%rax,1)
    8861:	00 00 00 00 
    8865:	66 66 2e 0f 1f 84 00 	data16 cs nopw 0x0(%rax,%rax,1)
    886c:	00 00 00 00 
    8870:	66 66 2e 0f 1f 84 00 	data16 cs nopw 0x0(%rax,%rax,1)
    8877:	00 00 00 00 
    887b:	66 66 2e 0f 1f 84 00 	data16 cs nopw 0x0(%rax,%rax,1)
    8882:	00 00 00 00 
    8886:	66 66 2e 0f 1f 84 00 	data16 cs nopw 0x0(%rax,%rax,1)
    888d:	00 00 00 00 
    8891:	66 66 2e 0f 1f 84 00 	data16 cs nopw 0x0(%rax,%rax,1)
    8898:	00 00 00 00 
    889c:	66 66 2e 0f 1f 84 00 	data16 cs nopw 0x0(%rax,%rax,1)
    88a3:	00 00 00 00 
    88a7:	66 66 2e 0f 1f 84 00 	data16 cs nopw 0x0(%rax,%rax,1)
    88ae:	00 00 00 00 
    88b2:	66 66 2e 0f 1f 84 00 	data16 cs nopw 0x0(%rax,%rax,1)
    88b9:	00 00 00 00 
    88bd:	66 66 2e 0f 1f 84 00 	data16 cs nopw 0x0(%rax,%rax,1)
    88c4:	00 00 00 00 
    88c8:	66 66 2e 0f 1f 84 00 	data16 cs nopw 0x0(%rax,%rax,1)
    88cf:	00 00 00 00 
    88d3:	66 66 2e 0f 1f 84 00 	data16 cs nopw 0x0(%rax,%rax,1)
    88da:	00 00 00 00 
    88de:	66 66 2e 0f 1f 84 00 	data16 cs nopw 0x0(%rax,%rax,1)
    88e5:	00 00 00 00 
    88e9:	66 66 2e 0f 1f 84 00 	data16 cs nopw 0x0(%rax,%rax,1)
    88f0:	00 00 00 00 
    88f4:	66 66 2e 0f 1f 84 00 	data16 cs nopw 0x0(%rax,%rax,1)
    88fb:	00 00 00 00 
    88ff:	66 66 2e 0f 1f 84 00 	data16 cs nopw 0x0(%rax,%rax,1)
    8906:	00 00 00 00 
    890a:	66 66 2e 0f 1f 84 00 	data16 cs nopw 0x0(%rax,%rax,1)
    8911:	00 00 00 00 
    8915:	66 66 2e 0f 1f 84 00 	data16 cs nopw 0x0(%rax,%rax,1)
    891c:	00 00 00 00 
    8920:	66 66 2e 0f 1f 84 00 	data16 cs nopw 0x0(%rax,%rax,1)
    8927:	00 00 00 00 
    892b:	66 66 2e 0f 1f 84 00 	data16 cs nopw 0x0(%rax,%rax,1)
    8932:	00 00 00 00 
    8936:	66 66 2e 0f 1f 84 00 	data16 cs nopw 0x0(%rax,%rax,1)
    893d:	00 00 00 00 
    8941:	66 66 2e 0f 1f 84 00 	data16 cs nopw 0x0(%rax,%rax,1)
    8948:	00 00 00 00 
    894c:	66 66 2e 0f 1f 84 00 	data16 cs nopw 0x0(%rax,%rax,1)
    8953:	00 00 00 00 
    8957:	66 66 2e 0f 1f 84 00 	data16 cs nopw 0x0(%rax,%rax,1)
    895e:	00 00 00 00 
    8962:	66 66 2e 0f 1f 84 00 	data16 cs nopw 0x0(%rax,%rax,1)
    8969:	00 00 00 00 
    896d:	66 66 2e 0f 1f 84 00 	data16 cs nopw 0x0(%rax,%rax,1)
    8974:	00 00 00 00 
    8978:	66 66 2e 0f 1f 84 00 	data16 cs nopw 0x0(%rax,%rax,1)
    897f:	00 00 00 00 
    8983:	66 66 2e 0f 1f 84 00 	data16 cs nopw 0x0(%rax,%rax,1)
    898a:	00 00 00 00 
    898e:	66 66 2e 0f 1f 84 00 	data16 cs nopw 0x0(%rax,%rax,1)
    8995:	00 00 00 00 
    8999:	66 66 2e 0f 1f 84 00 	data16 cs nopw 0x0(%rax,%rax,1)
    89a0:	00 00 00 00 
    89a4:	66 66 2e 0f 1f 84 00 	data16 cs nopw 0x0(%rax,%rax,1)
    89ab:	00 00 00 00 
    89af:	66 66 2e 0f 1f 84 00 	data16 cs nopw 0x0(%rax,%rax,1)
    89b6:	00 00 00 00 
    89ba:	66 66 2e 0f 1f 84 00 	data16 cs nopw 0x0(%rax,%rax,1)
    89c1:	00 00 00 00 
    89c5:	66 66 2e 0f 1f 84 00 	data16 cs nopw 0x0(%rax,%rax,1)
    89cc:	00 00 00 00 
    89d0:	66 66 2e 0f 1f 84 00 	data16 cs nopw 0x0(%rax,%rax,1)
    89d7:	00 00 00 00 
    89db:	66 66 2e 0f 1f 84 00 	data16 cs nopw 0x0(%rax,%rax,1)
    89e2:	00 00 00 00 
    89e6:	66 66 2e 0f 1f 84 00 	data16 cs nopw 0x0(%rax,%rax,1)
    89ed:	00 00 00 00 
    89f1:	66 66 2e 0f 1f 84 00 	data16 cs nopw 0x0(%rax,%rax,1)
    89f8:	00 00 00 00 
    89fc:	66 66 2e 0f 1f 84 00 	data16 cs nopw 0x0(%rax,%rax,1)
    8a03:	00 00 00 00 
    8a07:	66 66 2e 0f 1f 84 00 	data16 cs nopw 0x0(%rax,%rax,1)
    8a0e:	00 00 00 00 
    8a12:	66 66 2e 0f 1f 84 00 	data16 cs nopw 0x0(%rax,%rax,1)
    8a19:	00 00 00 00 
    8a1d:	66 66 2e 0f 1f 84 00 	data16 cs nopw 0x0(%rax,%rax,1)
    8a24:	00 00 00 00 
    8a28:	66 66 2e 0f 1f 84 00 	data16 cs nopw 0x0(%rax,%rax,1)
    8a2f:	00 00 00 00 
    8a33:	66 66 2e 0f 1f 84 00 	data16 cs nopw 0x0(%rax,%rax,1)
    8a3a:	00 00 00 00 
    8a3e:	66 66 2e 0f 1f 84 00 	data16 cs nopw 0x0(%rax,%rax,1)
    8a45:	00 00 00 00 
    8a49:	66 66 2e 0f 1f 84 00 	data16 cs nopw 0x0(%rax,%rax,1)
    8a50:	00 00 00 00 
    8a54:	66 66 2e 0f 1f 84 00 	data16 cs nopw 0x0(%rax,%rax,1)
    8a5b:	00 00 00 00 
    8a5f:	66 66 2e 0f 1f 84 00 	data16 cs nopw 0x0(%rax,%rax,1)
    8a66:	00 00 00 00 
    8a6a:	66 66 2e 0f 1f 84 00 	data16 cs nopw 0x0(%rax,%rax,1)
    8a71:	00 00 00 00 
    8a75:	66 66 2e 0f 1f 84 00 	data16 cs nopw 0x0(%rax,%rax,1)
    8a7c:	00 00 00 00 
    8a80:	66 66 2e 0f 1f 84 00 	data16 cs nopw 0x0(%rax,%rax,1)
    8a87:	00 00 00 00 
    8a8b:	66 66 2e 0f 1f 84 00 	data16 cs nopw 0x0(%rax,%rax,1)
    8a92:	00 00 00 00 
    8a96:	66 66 2e 0f 1f 84 00 	data16 cs nopw 0x0(%rax,%rax,1)
    8a9d:	00 00 00 00 
    8aa1:	66 66 2e 0f 1f 84 00 	data16 cs nopw 0x0(%rax,%rax,1)
    8aa8:	00 00 00 00 
    8aac:	66 66 2e 0f 1f 84 00 	data16 cs nopw 0x0(%rax,%rax,1)
    8ab3:	00 00 00 00 
    8ab7:	66 66 2e 0f 1f 84 00 	data16 cs nopw 0x0(%rax,%rax,1)
    8abe:	00 00 00 00 
    8ac2:	66 66 2e 0f 1f 84 00 	data16 cs nopw 0x0(%rax,%rax,1)
    8ac9:	00 00 00 00 
    8acd:	66 66 2e 0f 1f 84 00 	data16 cs nopw 0x0(%rax,%rax,1)
    8ad4:	00 00 00 00 
    8ad8:	66 66 2e 0f 1f 84 00 	data16 cs nopw 0x0(%rax,%rax,1)
    8adf:	00 00 00 00 
    8ae3:	66 66 2e 0f 1f 84 00 	data16 cs nopw 0x0(%rax,%rax,1)
    8aea:	00 00 00 00 
    8aee:	66 66 2e 0f 1f 84 00 	data16 cs nopw 0x0(%rax,%rax,1)
    8af5:	00 00 00 00 
    8af9:	66 66 2e 0f 1f 84 00 	data16 cs nopw 0x0(%rax,%rax,1)
    8b00:	00 00 00 00 
    8b04:	66 66 2e 0f 1f 84 00 	data16 cs nopw 0x0(%rax,%rax,1)
    8b0b:	00 00 00 00 
    8b0f:	66 66 2e 0f 1f 84 00 	data16 cs nopw 0x0(%rax,%rax,1)
    8b16:	00 00 00 00 
    8b1a:	66 66 2e 0f 1f 84 00 	data16 cs nopw 0x0(%rax,%rax,1)
    8b21:	00 00 00 00 
    8b25:	66 66 2e 0f 1f 84 00 	data16 cs nopw 0x0(%rax,%rax,1)
    8b2c:	00 00 00 00 
    8b30:	66 66 2e 0f 1f 84 00 	data16 cs nopw 0x0(%rax,%rax,1)
    8b37:	00 00 00 00 
    8b3b:	66 66 2e 0f 1f 84 00 	data16 cs nopw 0x0(%rax,%rax,1)
    8b42:	00 00 00 00 
    8b46:	66 66 2e 0f 1f 84 00 	data16 cs nopw 0x0(%rax,%rax,1)
    8b4d:	00 00 00 00 
    8b51:	66 66 2e 0f 1f 84 00 	data16 cs nopw 0x0(%rax,%rax,1)
    8b58:	00 00 00 00 
    8b5c:	66 66 2e 0f 1f 84 00 	data16 cs nopw 0x0(%rax,%rax,1)
    8b63:	00 00 00 00 
    8b67:	66 66 2e 0f 1f 84 00 	data16 cs nopw 0x0(%rax,%rax,1)
    8b6e:	00 00 00 00 
    8b72:	66 66 2e 0f 1f 84 00 	data16 cs nopw 0x0(%rax,%rax,1)
    8b79:	00 00 00 00 
    8b7d:	66 66 2e 0f 1f 84 00 	data16 cs nopw 0x0(%rax,%rax,1)
    8b84:	00 00 00 00 
    8b88:	66 66 2e 0f 1f 84 00 	data16 cs nopw 0x0(%rax,%rax,1)
    8b8f:	00 00 00 00 
    8b93:	66 66 2e 0f 1f 84 00 	data16 cs nopw 0x0(%rax,%rax,1)
    8b9a:	00 00 00 00 
    8b9e:	66 66 2e 0f 1f 84 00 	data16 cs nopw 0x0(%rax,%rax,1)
    8ba5:	00 00 00 00 
    8ba9:	66 66 2e 0f 1f 84 00 	data16 cs nopw 0x0(%rax,%rax,1)
    8bb0:	00 00 00 00 
    8bb4:	66 66 2e 0f 1f 84 00 	data16 cs nopw 0x0(%rax,%rax,1)
    8bbb:	00 00 00 00 
    8bbf:	66 66 2e 0f 1f 84 00 	data16 cs nopw 0x0(%rax,%rax,1)
    8bc6:	00 00 00 00 
    8bca:	66 66 2e 0f 1f 84 00 	data16 cs nopw 0x0(%rax,%rax,1)
    8bd1:	00 00 00 00 
    8bd5:	66 66 2e 0f 1f 84 00 	data16 cs nopw 0x0(%rax,%rax,1)
    8bdc:	00 00 00 00 
    8be0:	66 66 2e 0f 1f 84 00 	data16 cs nopw 0x0(%rax,%rax,1)
    8be7:	00 00 00 00 
    8beb:	66 66 2e 0f 1f 84 00 	data16 cs nopw 0x0(%rax,%rax,1)
    8bf2:	00 00 00 00 
    8bf6:	66 66 2e 0f 1f 84 00 	data16 cs nopw 0x0(%rax,%rax,1)
    8bfd:	00 00 00 00 
    8c01:	66 66 2e 0f 1f 84 00 	data16 cs nopw 0x0(%rax,%rax,1)
    8c08:	00 00 00 00 
    8c0c:	66 66 2e 0f 1f 84 00 	data16 cs nopw 0x0(%rax,%rax,1)
    8c13:	00 00 00 00 
    8c17:	66 66 2e 0f 1f 84 00 	data16 cs nopw 0x0(%rax,%rax,1)
    8c1e:	00 00 00 00 
    8c22:	66 66 2e 0f 1f 84 00 	data16 cs nopw 0x0(%rax,%rax,1)
    8c29:	00 00 00 00 
    8c2d:	66 66 2e 0f 1f 84 00 	data16 cs nopw 0x0(%rax,%rax,1)
    8c34:	00 00 00 00 
    8c38:	66 66 2e 0f 1f 84 00 	data16 cs nopw 0x0(%rax,%rax,1)
    8c3f:	00 00 00 00 
    8c43:	66 66 2e 0f 1f 84 00 	data16 cs nopw 0x0(%rax,%rax,1)
    8c4a:	00 00 00 00 
    8c4e:	66 66 2e 0f 1f 84 00 	data16 cs nopw 0x0(%rax,%rax,1)
    8c55:	00 00 00 00 
    8c59:	66 66 2e 0f 1f 84 00 	data16 cs nopw 0x0(%rax,%rax,1)
    8c60:	00 00 00 00 
    8c64:	66 66 2e 0f 1f 84 00 	data16 cs nopw 0x0(%rax,%rax,1)
    8c6b:	00 00 00 00 
    8c6f:	66 66 2e 0f 1f 84 00 	data16 cs nopw 0x0(%rax,%rax,1)
    8c76:	00 00 00 00 
    8c7a:	66 66 2e 0f 1f 84 00 	data16 cs nopw 0x0(%rax,%rax,1)
    8c81:	00 00 00 00 
    8c85:	66 66 2e 0f 1f 84 00 	data16 cs nopw 0x0(%rax,%rax,1)
    8c8c:	00 00 00 00 
    8c90:	66 66 2e 0f 1f 84 00 	data16 cs nopw 0x0(%rax,%rax,1)
    8c97:	00 00 00 00 
    8c9b:	66 66 2e 0f 1f 84 00 	data16 cs nopw 0x0(%rax,%rax,1)
    8ca2:	00 00 00 00 
    8ca6:	66 66 2e 0f 1f 84 00 	data16 cs nopw 0x0(%rax,%rax,1)
    8cad:	00 00 00 00 
    8cb1:	66 66 2e 0f 1f 84 00 	data16 cs nopw 0x0(%rax,%rax,1)
    8cb8:	00 00 00 00 
    8cbc:	66 66 2e 0f 1f 84 00 	data16 cs nopw 0x0(%rax,%rax,1)
    8cc3:	00 00 00 00 
    8cc7:	66 66 2e 0f 1f 84 00 	data16 cs nopw 0x0(%rax,%rax,1)
    8cce:	00 00 00 00 
    8cd2:	66 66 2e 0f 1f 84 00 	data16 cs nopw 0x0(%rax,%rax,1)
    8cd9:	00 00 00 00 
    8cdd:	66 66 2e 0f 1f 84 00 	data16 cs nopw 0x0(%rax,%rax,1)
    8ce4:	00 00 00 00 
    8ce8:	66 66 2e 0f 1f 84 00 	data16 cs nopw 0x0(%rax,%rax,1)
    8cef:	00 00 00 00 
    8cf3:	66 66 2e 0f 1f 84 00 	data16 cs nopw 0x0(%rax,%rax,1)
    8cfa:	00 00 00 00 
    8cfe:	66 66 2e 0f 1f 84 00 	data16 cs nopw 0x0(%rax,%rax,1)
    8d05:	00 00 00 00 
    8d09:	66 66 2e 0f 1f 84 00 	data16 cs nopw 0x0(%rax,%rax,1)
    8d10:	00 00 00 00 
    8d14:	66 66 2e 0f 1f 84 00 	data16 cs nopw 0x0(%rax,%rax,1)
    8d1b:	00 00 00 00 
    8d1f:	66 66 2e 0f 1f 84 00 	data16 cs nopw 0x0(%rax,%rax,1)
    8d26:	00 00 00 00 
    8d2a:	66 66 2e 0f 1f 84 00 	data16 cs nopw 0x0(%rax,%rax,1)
    8d31:	00 00 00 00 
    8d35:	66 66 2e 0f 1f 84 00 	data16 cs nopw 0x0(%rax,%rax,1)
    8d3c:	00 00 00 00 
    8d40:	66 66 2e 0f 1f 84 00 	data16 cs nopw 0x0(%rax,%rax,1)
    8d47:	00 00 00 00 
    8d4b:	66 66 2e 0f 1f 84 00 	data16 cs nopw 0x0(%rax,%rax,1)
    8d52:	00 00 00 00 
    8d56:	66 66 2e 0f 1f 84 00 	data16 cs nopw 0x0(%rax,%rax,1)
    8d5d:	00 00 00 00 
    8d61:	66 66 2e 0f 1f 84 00 	data16 cs nopw 0x0(%rax,%rax,1)
    8d68:	00 00 00 00 
    8d6c:	66 66 2e 0f 1f 84 00 	data16 cs nopw 0x0(%rax,%rax,1)
    8d73:	00 00 00 00 
    8d77:	66 66 2e 0f 1f 84 00 	data16 cs nopw 0x0(%rax,%rax,1)
    8d7e:	00 00 00 00 
    8d82:	66 66 2e 0f 1f 84 00 	data16 cs nopw 0x0(%rax,%rax,1)
    8d89:	00 00 00 00 
    8d8d:	66 66 2e 0f 1f 84 00 	data16 cs nopw 0x0(%rax,%rax,1)
    8d94:	00 00 00 00 
    8d98:	66 66 2e 0f 1f 84 00 	data16 cs nopw 0x0(%rax,%rax,1)
    8d9f:	00 00 00 00 
    8da3:	66 66 2e 0f 1f 84 00 	data16 cs nopw 0x0(%rax,%rax,1)
    8daa:	00 00 00 00 
    8dae:	66 66 2e 0f 1f 84 00 	data16 cs nopw 0x0(%rax,%rax,1)
    8db5:	00 00 00 00 
    8db9:	66 66 2e 0f 1f 84 00 	data16 cs nopw 0x0(%rax,%rax,1)
    8dc0:	00 00 00 00 
    8dc4:	66 66 2e 0f 1f 84 00 	data16 cs nopw 0x0(%rax,%rax,1)
    8dcb:	00 00 00 00 
    8dcf:	66 66 2e 0f 1f 84 00 	data16 cs nopw 0x0(%rax,%rax,1)
    8dd6:	00 00 00 00 
    8dda:	66 66 2e 0f 1f 84 00 	data16 cs nopw 0x0(%rax,%rax,1)
    8de1:	00 00 00 00 
    8de5:	66 66 2e 0f 1f 84 00 	data16 cs nopw 0x0(%rax,%rax,1)
    8dec:	00 00 00 00 
    8df0:	66 66 2e 0f 1f 84 00 	data16 cs nopw 0x0(%rax,%rax,1)
    8df7:	00 00 00 00 
    8dfb:	66 66 2e 0f 1f 84 00 	data16 cs nopw 0x0(%rax,%rax,1)
    8e02:	00 00 00 00 
    8e06:	66 66 2e 0f 1f 84 00 	data16 cs nopw 0x0(%rax,%rax,1)
    8e0d:	00 00 00 00 
    8e11:	66 66 2e 0f 1f 84 00 	data16 cs nopw 0x0(%rax,%rax,1)
    8e18:	00 00 00 00 
    8e1c:	66 66 2e 0f 1f 84 00 	data16 cs nopw 0x0(%rax,%rax,1)
    8e23:	00 00 00 00 
    8e27:	66 66 2e 0f 1f 84 00 	data16 cs nopw 0x0(%rax,%rax,1)
    8e2e:	00 00 00 00 
    8e32:	66 66 2e 0f 1f 84 00 	data16 cs nopw 0x0(%rax,%rax,1)
    8e39:	00 00 00 00 
    8e3d:	66 66 2e 0f 1f 84 00 	data16 cs nopw 0x0(%rax,%rax,1)
    8e44:	00 00 00 00 
    8e48:	66 66 2e 0f 1f 84 00 	data16 cs nopw 0x0(%rax,%rax,1)
    8e4f:	00 00 00 00 
    8e53:	66 66 2e 0f 1f 84 00 	data16 cs nopw 0x0(%rax,%rax,1)
    8e5a:	00 00 00 00 
    8e5e:	66 66 2e 0f 1f 84 00 	data16 cs nopw 0x0(%rax,%rax,1)
    8e65:	00 00 00 00 
    8e69:	66 66 2e 0f 1f 84 00 	data16 cs nopw 0x0(%rax,%rax,1)
    8e70:	00 00 00 00 
    8e74:	66 66 2e 0f 1f 84 00 	data16 cs nopw 0x0(%rax,%rax,1)
    8e7b:	00 00 00 00 
    8e7f:	66 66 2e 0f 1f 84 00 	data16 cs nopw 0x0(%rax,%rax,1)
    8e86:	00 00 00 00 
    8e8a:	66 66 2e 0f 1f 84 00 	data16 cs nopw 0x0(%rax,%rax,1)
    8e91:	00 00 00 00 
    8e95:	66 66 2e 0f 1f 84 00 	data16 cs nopw 0x0(%rax,%rax,1)
    8e9c:	00 00 00 00 
    8ea0:	66 66 2e 0f 1f 84 00 	data16 cs nopw 0x0(%rax,%rax,1)
    8ea7:	00 00 00 00 
    8eab:	66 66 2e 0f 1f 84 00 	data16 cs nopw 0x0(%rax,%rax,1)
    8eb2:	00 00 00 00 
    8eb6:	66 66 2e 0f 1f 84 00 	data16 cs nopw 0x0(%rax,%rax,1)
    8ebd:	00 00 00 00 
    8ec1:	66 66 2e 0f 1f 84 00 	data16 cs nopw 0x0(%rax,%rax,1)
    8ec8:	00 00 00 00 
    8ecc:	66 66 2e 0f 1f 84 00 	data16 cs nopw 0x0(%rax,%rax,1)
    8ed3:	00 00 00 00 
    8ed7:	66 66 2e 0f 1f 84 00 	data16 cs nopw 0x0(%rax,%rax,1)
    8ede:	00 00 00 00 
    8ee2:	66 66 2e 0f 1f 84 00 	data16 cs nopw 0x0(%rax,%rax,1)
    8ee9:	00 00 00 00 
    8eed:	66 66 2e 0f 1f 84 00 	data16 cs nopw 0x0(%rax,%rax,1)
    8ef4:	00 00 00 00 
    8ef8:	66 66 2e 0f 1f 84 00 	data16 cs nopw 0x0(%rax,%rax,1)
    8eff:	00 00 00 00 
    8f03:	66 66 2e 0f 1f 84 00 	data16 cs nopw 0x0(%rax,%rax,1)
    8f0a:	00 00 00 00 
    8f0e:	66 66 2e 0f 1f 84 00 	data16 cs nopw 0x0(%rax,%rax,1)
    8f15:	00 00 00 00 
    8f19:	66 66 2e 0f 1f 84 00 	data16 cs nopw 0x0(%rax,%rax,1)
    8f20:	00 00 00 00 
    8f24:	66 66 2e 0f 1f 84 00 	data16 cs nopw 0x0(%rax,%rax,1)
    8f2b:	00 00 00 00 
    8f2f:	66 66 2e 0f 1f 84 00 	data16 cs nopw 0x0(%rax,%rax,1)
    8f36:	00 00 00 00 
    8f3a:	66 66 2e 0f 1f 84 00 	data16 cs nopw 0x0(%rax,%rax,1)
    8f41:	00 00 00 00 
    8f45:	66 66 2e 0f 1f 84 00 	data16 cs nopw 0x0(%rax,%rax,1)
    8f4c:	00 00 00 00 
    8f50:	66 66 2e 0f 1f 84 00 	data16 cs nopw 0x0(%rax,%rax,1)
    8f57:	00 00 00 00 
    8f5b:	66 66 2e 0f 1f 84 00 	data16 cs nopw 0x0(%rax,%rax,1)
    8f62:	00 00 00 00 
    8f66:	66 66 2e 0f 1f 84 00 	data16 cs nopw 0x0(%rax,%rax,1)
    8f6d:	00 00 00 00 
    8f71:	66 66 2e 0f 1f 84 00 	data16 cs nopw 0x0(%rax,%rax,1)
    8f78:	00 00 00 00 
    8f7c:	66 66 2e 0f 1f 84 00 	data16 cs nopw 0x0(%rax,%rax,1)
    8f83:	00 00 00 00 
    8f87:	66 66 2e 0f 1f 84 00 	data16 cs nopw 0x0(%rax,%rax,1)
    8f8e:	00 00 00 00 
    8f92:	66 66 2e 0f 1f 84 00 	data16 cs nopw 0x0(%rax,%rax,1)
    8f99:	00 00 00 00 
    8f9d:	66 66 2e 0f 1f 84 00 	data16 cs nopw 0x0(%rax,%rax,1)
    8fa4:	00 00 00 00 
    8fa8:	66 66 2e 0f 1f 84 00 	data16 cs nopw 0x0(%rax,%rax,1)
    8faf:	00 00 00 00 
    8fb3:	66 66 2e 0f 1f 84 00 	data16 cs nopw 0x0(%rax,%rax,1)
    8fba:	00 00 00 00 
    8fbe:	66 66 2e 0f 1f 84 00 	data16 cs nopw 0x0(%rax,%rax,1)
    8fc5:	00 00 00 00 
    8fc9:	66 66 2e 0f 1f 84 00 	data16 cs nopw 0x0(%rax,%rax,1)
    8fd0:	00 00 00 00 
    8fd4:	66 66 2e 0f 1f 84 00 	data16 cs nopw 0x0(%rax,%rax,1)
    8fdb:	00 00 00 00 
    8fdf:	66 66 2e 0f 1f 84 00 	data16 cs nopw 0x0(%rax,%rax,1)
    8fe6:	00 00 00 00 
    8fea:	66 66 2e 0f 1f 84 00 	data16 cs nopw 0x0(%rax,%rax,1)
    8ff1:	00 00 00 00 
    8ff5:	66 66 2e 0f 1f 84 00 	data16 cs nopw 0x0(%rax,%rax,1)
    8ffc:	00 00 00 00 

0000000000009000 <pml4>:
    9000:	03 a0 00 00 00 00    	add    0x0(%rax),%esp
    9006:	00 00                	add    %al,(%rax)
    9008:	90                   	nop
    9009:	e9 f2 0f 00 00       	jmp    a000 <pdpt>
    900e:	90                   	nop
    900f:	66 66 2e 0f 1f 84 00 	data16 cs nopw 0x0(%rax,%rax,1)
    9016:	00 00 00 00 
    901a:	66 66 2e 0f 1f 84 00 	data16 cs nopw 0x0(%rax,%rax,1)
    9021:	00 00 00 00 
    9025:	66 66 2e 0f 1f 84 00 	data16 cs nopw 0x0(%rax,%rax,1)
    902c:	00 00 00 00 
    9030:	66 66 2e 0f 1f 84 00 	data16 cs nopw 0x0(%rax,%rax,1)
    9037:	00 00 00 00 
    903b:	66 66 2e 0f 1f 84 00 	data16 cs nopw 0x0(%rax,%rax,1)
    9042:	00 00 00 00 
    9046:	66 66 2e 0f 1f 84 00 	data16 cs nopw 0x0(%rax,%rax,1)
    904d:	00 00 00 00 
    9051:	66 66 2e 0f 1f 84 00 	data16 cs nopw 0x0(%rax,%rax,1)
    9058:	00 00 00 00 
    905c:	66 66 2e 0f 1f 84 00 	data16 cs nopw 0x0(%rax,%rax,1)
    9063:	00 00 00 00 
    9067:	66 66 2e 0f 1f 84 00 	data16 cs nopw 0x0(%rax,%rax,1)
    906e:	00 00 00 00 
    9072:	66 66 2e 0f 1f 84 00 	data16 cs nopw 0x0(%rax,%rax,1)
    9079:	00 00 00 00 
    907d:	66 66 2e 0f 1f 84 00 	data16 cs nopw 0x0(%rax,%rax,1)
    9084:	00 00 00 00 
    9088:	66 66 2e 0f 1f 84 00 	data16 cs nopw 0x0(%rax,%rax,1)
    908f:	00 00 00 00 
    9093:	66 66 2e 0f 1f 84 00 	data16 cs nopw 0x0(%rax,%rax,1)
    909a:	00 00 00 00 
    909e:	66 66 2e 0f 1f 84 00 	data16 cs nopw 0x0(%rax,%rax,1)
    90a5:	00 00 00 00 
    90a9:	66 66 2e 0f 1f 84 00 	data16 cs nopw 0x0(%rax,%rax,1)
    90b0:	00 00 00 00 
    90b4:	66 66 2e 0f 1f 84 00 	data16 cs nopw 0x0(%rax,%rax,1)
    90bb:	00 00 00 00 
    90bf:	66 66 2e 0f 1f 84 00 	data16 cs nopw 0x0(%rax,%rax,1)
    90c6:	00 00 00 00 
    90ca:	66 66 2e 0f 1f 84 00 	data16 cs nopw 0x0(%rax,%rax,1)
    90d1:	00 00 00 00 
    90d5:	66 66 2e 0f 1f 84 00 	data16 cs nopw 0x0(%rax,%rax,1)
    90dc:	00 00 00 00 
    90e0:	66 66 2e 0f 1f 84 00 	data16 cs nopw 0x0(%rax,%rax,1)
    90e7:	00 00 00 00 
    90eb:	66 66 2e 0f 1f 84 00 	data16 cs nopw 0x0(%rax,%rax,1)
    90f2:	00 00 00 00 
    90f6:	66 66 2e 0f 1f 84 00 	data16 cs nopw 0x0(%rax,%rax,1)
    90fd:	00 00 00 00 
    9101:	66 66 2e 0f 1f 84 00 	data16 cs nopw 0x0(%rax,%rax,1)
    9108:	00 00 00 00 
    910c:	66 66 2e 0f 1f 84 00 	data16 cs nopw 0x0(%rax,%rax,1)
    9113:	00 00 00 00 
    9117:	66 66 2e 0f 1f 84 00 	data16 cs nopw 0x0(%rax,%rax,1)
    911e:	00 00 00 00 
    9122:	66 66 2e 0f 1f 84 00 	data16 cs nopw 0x0(%rax,%rax,1)
    9129:	00 00 00 00 
    912d:	66 66 2e 0f 1f 84 00 	data16 cs nopw 0x0(%rax,%rax,1)
    9134:	00 00 00 00 
    9138:	66 66 2e 0f 1f 84 00 	data16 cs nopw 0x0(%rax,%rax,1)
    913f:	00 00 00 00 
    9143:	66 66 2e 0f 1f 84 00 	data16 cs nopw 0x0(%rax,%rax,1)
    914a:	00 00 00 00 
    914e:	66 66 2e 0f 1f 84 00 	data16 cs nopw 0x0(%rax,%rax,1)
    9155:	00 00 00 00 
    9159:	66 66 2e 0f 1f 84 00 	data16 cs nopw 0x0(%rax,%rax,1)
    9160:	00 00 00 00 
    9164:	66 66 2e 0f 1f 84 00 	data16 cs nopw 0x0(%rax,%rax,1)
    916b:	00 00 00 00 
    916f:	66 66 2e 0f 1f 84 00 	data16 cs nopw 0x0(%rax,%rax,1)
    9176:	00 00 00 00 
    917a:	66 66 2e 0f 1f 84 00 	data16 cs nopw 0x0(%rax,%rax,1)
    9181:	00 00 00 00 
    9185:	66 66 2e 0f 1f 84 00 	data16 cs nopw 0x0(%rax,%rax,1)
    918c:	00 00 00 00 
    9190:	66 66 2e 0f 1f 84 00 	data16 cs nopw 0x0(%rax,%rax,1)
    9197:	00 00 00 00 
    919b:	66 66 2e 0f 1f 84 00 	data16 cs nopw 0x0(%rax,%rax,1)
    91a2:	00 00 00 00 
    91a6:	66 66 2e 0f 1f 84 00 	data16 cs nopw 0x0(%rax,%rax,1)
    91ad:	00 00 00 00 
    91b1:	66 66 2e 0f 1f 84 00 	data16 cs nopw 0x0(%rax,%rax,1)
    91b8:	00 00 00 00 
    91bc:	66 66 2e 0f 1f 84 00 	data16 cs nopw 0x0(%rax,%rax,1)
    91c3:	00 00 00 00 
    91c7:	66 66 2e 0f 1f 84 00 	data16 cs nopw 0x0(%rax,%rax,1)
    91ce:	00 00 00 00 
    91d2:	66 66 2e 0f 1f 84 00 	data16 cs nopw 0x0(%rax,%rax,1)
    91d9:	00 00 00 00 
    91dd:	66 66 2e 0f 1f 84 00 	data16 cs nopw 0x0(%rax,%rax,1)
    91e4:	00 00 00 00 
    91e8:	66 66 2e 0f 1f 84 00 	data16 cs nopw 0x0(%rax,%rax,1)
    91ef:	00 00 00 00 
    91f3:	66 66 2e 0f 1f 84 00 	data16 cs nopw 0x0(%rax,%rax,1)
    91fa:	00 00 00 00 
    91fe:	66 66 2e 0f 1f 84 00 	data16 cs nopw 0x0(%rax,%rax,1)
    9205:	00 00 00 00 
    9209:	66 66 2e 0f 1f 84 00 	data16 cs nopw 0x0(%rax,%rax,1)
    9210:	00 00 00 00 
    9214:	66 66 2e 0f 1f 84 00 	data16 cs nopw 0x0(%rax,%rax,1)
    921b:	00 00 00 00 
    921f:	66 66 2e 0f 1f 84 00 	data16 cs nopw 0x0(%rax,%rax,1)
    9226:	00 00 00 00 
    922a:	66 66 2e 0f 1f 84 00 	data16 cs nopw 0x0(%rax,%rax,1)
    9231:	00 00 00 00 
    9235:	66 66 2e 0f 1f 84 00 	data16 cs nopw 0x0(%rax,%rax,1)
    923c:	00 00 00 00 
    9240:	66 66 2e 0f 1f 84 00 	data16 cs nopw 0x0(%rax,%rax,1)
    9247:	00 00 00 00 
    924b:	66 66 2e 0f 1f 84 00 	data16 cs nopw 0x0(%rax,%rax,1)
    9252:	00 00 00 00 
    9256:	66 66 2e 0f 1f 84 00 	data16 cs nopw 0x0(%rax,%rax,1)
    925d:	00 00 00 00 
    9261:	66 66 2e 0f 1f 84 00 	data16 cs nopw 0x0(%rax,%rax,1)
    9268:	00 00 00 00 
    926c:	66 66 2e 0f 1f 84 00 	data16 cs nopw 0x0(%rax,%rax,1)
    9273:	00 00 00 00 
    9277:	66 66 2e 0f 1f 84 00 	data16 cs nopw 0x0(%rax,%rax,1)
    927e:	00 00 00 00 
    9282:	66 66 2e 0f 1f 84 00 	data16 cs nopw 0x0(%rax,%rax,1)
    9289:	00 00 00 00 
    928d:	66 66 2e 0f 1f 84 00 	data16 cs nopw 0x0(%rax,%rax,1)
    9294:	00 00 00 00 
    9298:	66 66 2e 0f 1f 84 00 	data16 cs nopw 0x0(%rax,%rax,1)
    929f:	00 00 00 00 
    92a3:	66 66 2e 0f 1f 84 00 	data16 cs nopw 0x0(%rax,%rax,1)
    92aa:	00 00 00 00 
    92ae:	66 66 2e 0f 1f 84 00 	data16 cs nopw 0x0(%rax,%rax,1)
    92b5:	00 00 00 00 
    92b9:	66 66 2e 0f 1f 84 00 	data16 cs nopw 0x0(%rax,%rax,1)
    92c0:	00 00 00 00 
    92c4:	66 66 2e 0f 1f 84 00 	data16 cs nopw 0x0(%rax,%rax,1)
    92cb:	00 00 00 00 
    92cf:	66 66 2e 0f 1f 84 00 	data16 cs nopw 0x0(%rax,%rax,1)
    92d6:	00 00 00 00 
    92da:	66 66 2e 0f 1f 84 00 	data16 cs nopw 0x0(%rax,%rax,1)
    92e1:	00 00 00 00 
    92e5:	66 66 2e 0f 1f 84 00 	data16 cs nopw 0x0(%rax,%rax,1)
    92ec:	00 00 00 00 
    92f0:	66 66 2e 0f 1f 84 00 	data16 cs nopw 0x0(%rax,%rax,1)
    92f7:	00 00 00 00 
    92fb:	66 66 2e 0f 1f 84 00 	data16 cs nopw 0x0(%rax,%rax,1)
    9302:	00 00 00 00 
    9306:	66 66 2e 0f 1f 84 00 	data16 cs nopw 0x0(%rax,%rax,1)
    930d:	00 00 00 00 
    9311:	66 66 2e 0f 1f 84 00 	data16 cs nopw 0x0(%rax,%rax,1)
    9318:	00 00 00 00 
    931c:	66 66 2e 0f 1f 84 00 	data16 cs nopw 0x0(%rax,%rax,1)
    9323:	00 00 00 00 
    9327:	66 66 2e 0f 1f 84 00 	data16 cs nopw 0x0(%rax,%rax,1)
    932e:	00 00 00 00 
    9332:	66 66 2e 0f 1f 84 00 	data16 cs nopw 0x0(%rax,%rax,1)
    9339:	00 00 00 00 
    933d:	66 66 2e 0f 1f 84 00 	data16 cs nopw 0x0(%rax,%rax,1)
    9344:	00 00 00 00 
    9348:	66 66 2e 0f 1f 84 00 	data16 cs nopw 0x0(%rax,%rax,1)
    934f:	00 00 00 00 
    9353:	66 66 2e 0f 1f 84 00 	data16 cs nopw 0x0(%rax,%rax,1)
    935a:	00 00 00 00 
    935e:	66 66 2e 0f 1f 84 00 	data16 cs nopw 0x0(%rax,%rax,1)
    9365:	00 00 00 00 
    9369:	66 66 2e 0f 1f 84 00 	data16 cs nopw 0x0(%rax,%rax,1)
    9370:	00 00 00 00 
    9374:	66 66 2e 0f 1f 84 00 	data16 cs nopw 0x0(%rax,%rax,1)
    937b:	00 00 00 00 
    937f:	66 66 2e 0f 1f 84 00 	data16 cs nopw 0x0(%rax,%rax,1)
    9386:	00 00 00 00 
    938a:	66 66 2e 0f 1f 84 00 	data16 cs nopw 0x0(%rax,%rax,1)
    9391:	00 00 00 00 
    9395:	66 66 2e 0f 1f 84 00 	data16 cs nopw 0x0(%rax,%rax,1)
    939c:	00 00 00 00 
    93a0:	66 66 2e 0f 1f 84 00 	data16 cs nopw 0x0(%rax,%rax,1)
    93a7:	00 00 00 00 
    93ab:	66 66 2e 0f 1f 84 00 	data16 cs nopw 0x0(%rax,%rax,1)
    93b2:	00 00 00 00 
    93b6:	66 66 2e 0f 1f 84 00 	data16 cs nopw 0x0(%rax,%rax,1)
    93bd:	00 00 00 00 
    93c1:	66 66 2e 0f 1f 84 00 	data16 cs nopw 0x0(%rax,%rax,1)
    93c8:	00 00 00 00 
    93cc:	66 66 2e 0f 1f 84 00 	data16 cs nopw 0x0(%rax,%rax,1)
    93d3:	00 00 00 00 
    93d7:	66 66 2e 0f 1f 84 00 	data16 cs nopw 0x0(%rax,%rax,1)
    93de:	00 00 00 00 
    93e2:	66 66 2e 0f 1f 84 00 	data16 cs nopw 0x0(%rax,%rax,1)
    93e9:	00 00 00 00 
    93ed:	66 66 2e 0f 1f 84 00 	data16 cs nopw 0x0(%rax,%rax,1)
    93f4:	00 00 00 00 
    93f8:	66 66 2e 0f 1f 84 00 	data16 cs nopw 0x0(%rax,%rax,1)
    93ff:	00 00 00 00 
    9403:	66 66 2e 0f 1f 84 00 	data16 cs nopw 0x0(%rax,%rax,1)
    940a:	00 00 00 00 
    940e:	66 66 2e 0f 1f 84 00 	data16 cs nopw 0x0(%rax,%rax,1)
    9415:	00 00 00 00 
    9419:	66 66 2e 0f 1f 84 00 	data16 cs nopw 0x0(%rax,%rax,1)
    9420:	00 00 00 00 
    9424:	66 66 2e 0f 1f 84 00 	data16 cs nopw 0x0(%rax,%rax,1)
    942b:	00 00 00 00 
    942f:	66 66 2e 0f 1f 84 00 	data16 cs nopw 0x0(%rax,%rax,1)
    9436:	00 00 00 00 
    943a:	66 66 2e 0f 1f 84 00 	data16 cs nopw 0x0(%rax,%rax,1)
    9441:	00 00 00 00 
    9445:	66 66 2e 0f 1f 84 00 	data16 cs nopw 0x0(%rax,%rax,1)
    944c:	00 00 00 00 
    9450:	66 66 2e 0f 1f 84 00 	data16 cs nopw 0x0(%rax,%rax,1)
    9457:	00 00 00 00 
    945b:	66 66 2e 0f 1f 84 00 	data16 cs nopw 0x0(%rax,%rax,1)
    9462:	00 00 00 00 
    9466:	66 66 2e 0f 1f 84 00 	data16 cs nopw 0x0(%rax,%rax,1)
    946d:	00 00 00 00 
    9471:	66 66 2e 0f 1f 84 00 	data16 cs nopw 0x0(%rax,%rax,1)
    9478:	00 00 00 00 
    947c:	66 66 2e 0f 1f 84 00 	data16 cs nopw 0x0(%rax,%rax,1)
    9483:	00 00 00 00 
    9487:	66 66 2e 0f 1f 84 00 	data16 cs nopw 0x0(%rax,%rax,1)
    948e:	00 00 00 00 
    9492:	66 66 2e 0f 1f 84 00 	data16 cs nopw 0x0(%rax,%rax,1)
    9499:	00 00 00 00 
    949d:	66 66 2e 0f 1f 84 00 	data16 cs nopw 0x0(%rax,%rax,1)
    94a4:	00 00 00 00 
    94a8:	66 66 2e 0f 1f 84 00 	data16 cs nopw 0x0(%rax,%rax,1)
    94af:	00 00 00 00 
    94b3:	66 66 2e 0f 1f 84 00 	data16 cs nopw 0x0(%rax,%rax,1)
    94ba:	00 00 00 00 
    94be:	66 66 2e 0f 1f 84 00 	data16 cs nopw 0x0(%rax,%rax,1)
    94c5:	00 00 00 00 
    94c9:	66 66 2e 0f 1f 84 00 	data16 cs nopw 0x0(%rax,%rax,1)
    94d0:	00 00 00 00 
    94d4:	66 66 2e 0f 1f 84 00 	data16 cs nopw 0x0(%rax,%rax,1)
    94db:	00 00 00 00 
    94df:	66 66 2e 0f 1f 84 00 	data16 cs nopw 0x0(%rax,%rax,1)
    94e6:	00 00 00 00 
    94ea:	66 66 2e 0f 1f 84 00 	data16 cs nopw 0x0(%rax,%rax,1)
    94f1:	00 00 00 00 
    94f5:	66 66 2e 0f 1f 84 00 	data16 cs nopw 0x0(%rax,%rax,1)
    94fc:	00 00 00 00 
    9500:	66 66 2e 0f 1f 84 00 	data16 cs nopw 0x0(%rax,%rax,1)
    9507:	00 00 00 00 
    950b:	66 66 2e 0f 1f 84 00 	data16 cs nopw 0x0(%rax,%rax,1)
    9512:	00 00 00 00 
    9516:	66 66 2e 0f 1f 84 00 	data16 cs nopw 0x0(%rax,%rax,1)
    951d:	00 00 00 00 
    9521:	66 66 2e 0f 1f 84 00 	data16 cs nopw 0x0(%rax,%rax,1)
    9528:	00 00 00 00 
    952c:	66 66 2e 0f 1f 84 00 	data16 cs nopw 0x0(%rax,%rax,1)
    9533:	00 00 00 00 
    9537:	66 66 2e 0f 1f 84 00 	data16 cs nopw 0x0(%rax,%rax,1)
    953e:	00 00 00 00 
    9542:	66 66 2e 0f 1f 84 00 	data16 cs nopw 0x0(%rax,%rax,1)
    9549:	00 00 00 00 
    954d:	66 66 2e 0f 1f 84 00 	data16 cs nopw 0x0(%rax,%rax,1)
    9554:	00 00 00 00 
    9558:	66 66 2e 0f 1f 84 00 	data16 cs nopw 0x0(%rax,%rax,1)
    955f:	00 00 00 00 
    9563:	66 66 2e 0f 1f 84 00 	data16 cs nopw 0x0(%rax,%rax,1)
    956a:	00 00 00 00 
    956e:	66 66 2e 0f 1f 84 00 	data16 cs nopw 0x0(%rax,%rax,1)
    9575:	00 00 00 00 
    9579:	66 66 2e 0f 1f 84 00 	data16 cs nopw 0x0(%rax,%rax,1)
    9580:	00 00 00 00 
    9584:	66 66 2e 0f 1f 84 00 	data16 cs nopw 0x0(%rax,%rax,1)
    958b:	00 00 00 00 
    958f:	66 66 2e 0f 1f 84 00 	data16 cs nopw 0x0(%rax,%rax,1)
    9596:	00 00 00 00 
    959a:	66 66 2e 0f 1f 84 00 	data16 cs nopw 0x0(%rax,%rax,1)
    95a1:	00 00 00 00 
    95a5:	66 66 2e 0f 1f 84 00 	data16 cs nopw 0x0(%rax,%rax,1)
    95ac:	00 00 00 00 
    95b0:	66 66 2e 0f 1f 84 00 	data16 cs nopw 0x0(%rax,%rax,1)
    95b7:	00 00 00 00 
    95bb:	66 66 2e 0f 1f 84 00 	data16 cs nopw 0x0(%rax,%rax,1)
    95c2:	00 00 00 00 
    95c6:	66 66 2e 0f 1f 84 00 	data16 cs nopw 0x0(%rax,%rax,1)
    95cd:	00 00 00 00 
    95d1:	66 66 2e 0f 1f 84 00 	data16 cs nopw 0x0(%rax,%rax,1)
    95d8:	00 00 00 00 
    95dc:	66 66 2e 0f 1f 84 00 	data16 cs nopw 0x0(%rax,%rax,1)
    95e3:	00 00 00 00 
    95e7:	66 66 2e 0f 1f 84 00 	data16 cs nopw 0x0(%rax,%rax,1)
    95ee:	00 00 00 00 
    95f2:	66 66 2e 0f 1f 84 00 	data16 cs nopw 0x0(%rax,%rax,1)
    95f9:	00 00 00 00 
    95fd:	66 66 2e 0f 1f 84 00 	data16 cs nopw 0x0(%rax,%rax,1)
    9604:	00 00 00 00 
    9608:	66 66 2e 0f 1f 84 00 	data16 cs nopw 0x0(%rax,%rax,1)
    960f:	00 00 00 00 
    9613:	66 66 2e 0f 1f 84 00 	data16 cs nopw 0x0(%rax,%rax,1)
    961a:	00 00 00 00 
    961e:	66 66 2e 0f 1f 84 00 	data16 cs nopw 0x0(%rax,%rax,1)
    9625:	00 00 00 00 
    9629:	66 66 2e 0f 1f 84 00 	data16 cs nopw 0x0(%rax,%rax,1)
    9630:	00 00 00 00 
    9634:	66 66 2e 0f 1f 84 00 	data16 cs nopw 0x0(%rax,%rax,1)
    963b:	00 00 00 00 
    963f:	66 66 2e 0f 1f 84 00 	data16 cs nopw 0x0(%rax,%rax,1)
    9646:	00 00 00 00 
    964a:	66 66 2e 0f 1f 84 00 	data16 cs nopw 0x0(%rax,%rax,1)
    9651:	00 00 00 00 
    9655:	66 66 2e 0f 1f 84 00 	data16 cs nopw 0x0(%rax,%rax,1)
    965c:	00 00 00 00 
    9660:	66 66 2e 0f 1f 84 00 	data16 cs nopw 0x0(%rax,%rax,1)
    9667:	00 00 00 00 
    966b:	66 66 2e 0f 1f 84 00 	data16 cs nopw 0x0(%rax,%rax,1)
    9672:	00 00 00 00 
    9676:	66 66 2e 0f 1f 84 00 	data16 cs nopw 0x0(%rax,%rax,1)
    967d:	00 00 00 00 
    9681:	66 66 2e 0f 1f 84 00 	data16 cs nopw 0x0(%rax,%rax,1)
    9688:	00 00 00 00 
    968c:	66 66 2e 0f 1f 84 00 	data16 cs nopw 0x0(%rax,%rax,1)
    9693:	00 00 00 00 
    9697:	66 66 2e 0f 1f 84 00 	data16 cs nopw 0x0(%rax,%rax,1)
    969e:	00 00 00 00 
    96a2:	66 66 2e 0f 1f 84 00 	data16 cs nopw 0x0(%rax,%rax,1)
    96a9:	00 00 00 00 
    96ad:	66 66 2e 0f 1f 84 00 	data16 cs nopw 0x0(%rax,%rax,1)
    96b4:	00 00 00 00 
    96b8:	66 66 2e 0f 1f 84 00 	data16 cs nopw 0x0(%rax,%rax,1)
    96bf:	00 00 00 00 
    96c3:	66 66 2e 0f 1f 84 00 	data16 cs nopw 0x0(%rax,%rax,1)
    96ca:	00 00 00 00 
    96ce:	66 66 2e 0f 1f 84 00 	data16 cs nopw 0x0(%rax,%rax,1)
    96d5:	00 00 00 00 
    96d9:	66 66 2e 0f 1f 84 00 	data16 cs nopw 0x0(%rax,%rax,1)
    96e0:	00 00 00 00 
    96e4:	66 66 2e 0f 1f 84 00 	data16 cs nopw 0x0(%rax,%rax,1)
    96eb:	00 00 00 00 
    96ef:	66 66 2e 0f 1f 84 00 	data16 cs nopw 0x0(%rax,%rax,1)
    96f6:	00 00 00 00 
    96fa:	66 66 2e 0f 1f 84 00 	data16 cs nopw 0x0(%rax,%rax,1)
    9701:	00 00 00 00 
    9705:	66 66 2e 0f 1f 84 00 	data16 cs nopw 0x0(%rax,%rax,1)
    970c:	00 00 00 00 
    9710:	66 66 2e 0f 1f 84 00 	data16 cs nopw 0x0(%rax,%rax,1)
    9717:	00 00 00 00 
    971b:	66 66 2e 0f 1f 84 00 	data16 cs nopw 0x0(%rax,%rax,1)
    9722:	00 00 00 00 
    9726:	66 66 2e 0f 1f 84 00 	data16 cs nopw 0x0(%rax,%rax,1)
    972d:	00 00 00 00 
    9731:	66 66 2e 0f 1f 84 00 	data16 cs nopw 0x0(%rax,%rax,1)
    9738:	00 00 00 00 
    973c:	66 66 2e 0f 1f 84 00 	data16 cs nopw 0x0(%rax,%rax,1)
    9743:	00 00 00 00 
    9747:	66 66 2e 0f 1f 84 00 	data16 cs nopw 0x0(%rax,%rax,1)
    974e:	00 00 00 00 
    9752:	66 66 2e 0f 1f 84 00 	data16 cs nopw 0x0(%rax,%rax,1)
    9759:	00 00 00 00 
    975d:	66 66 2e 0f 1f 84 00 	data16 cs nopw 0x0(%rax,%rax,1)
    9764:	00 00 00 00 
    9768:	66 66 2e 0f 1f 84 00 	data16 cs nopw 0x0(%rax,%rax,1)
    976f:	00 00 00 00 
    9773:	66 66 2e 0f 1f 84 00 	data16 cs nopw 0x0(%rax,%rax,1)
    977a:	00 00 00 00 
    977e:	66 66 2e 0f 1f 84 00 	data16 cs nopw 0x0(%rax,%rax,1)
    9785:	00 00 00 00 
    9789:	66 66 2e 0f 1f 84 00 	data16 cs nopw 0x0(%rax,%rax,1)
    9790:	00 00 00 00 
    9794:	66 66 2e 0f 1f 84 00 	data16 cs nopw 0x0(%rax,%rax,1)
    979b:	00 00 00 00 
    979f:	66 66 2e 0f 1f 84 00 	data16 cs nopw 0x0(%rax,%rax,1)
    97a6:	00 00 00 00 
    97aa:	66 66 2e 0f 1f 84 00 	data16 cs nopw 0x0(%rax,%rax,1)
    97b1:	00 00 00 00 
    97b5:	66 66 2e 0f 1f 84 00 	data16 cs nopw 0x0(%rax,%rax,1)
    97bc:	00 00 00 00 
    97c0:	66 66 2e 0f 1f 84 00 	data16 cs nopw 0x0(%rax,%rax,1)
    97c7:	00 00 00 00 
    97cb:	66 66 2e 0f 1f 84 00 	data16 cs nopw 0x0(%rax,%rax,1)
    97d2:	00 00 00 00 
    97d6:	66 66 2e 0f 1f 84 00 	data16 cs nopw 0x0(%rax,%rax,1)
    97dd:	00 00 00 00 
    97e1:	66 66 2e 0f 1f 84 00 	data16 cs nopw 0x0(%rax,%rax,1)
    97e8:	00 00 00 00 
    97ec:	66 66 2e 0f 1f 84 00 	data16 cs nopw 0x0(%rax,%rax,1)
    97f3:	00 00 00 00 
    97f7:	66 66 2e 0f 1f 84 00 	data16 cs nopw 0x0(%rax,%rax,1)
    97fe:	00 00 00 00 
    9802:	66 66 2e 0f 1f 84 00 	data16 cs nopw 0x0(%rax,%rax,1)
    9809:	00 00 00 00 
    980d:	66 66 2e 0f 1f 84 00 	data16 cs nopw 0x0(%rax,%rax,1)
    9814:	00 00 00 00 
    9818:	66 66 2e 0f 1f 84 00 	data16 cs nopw 0x0(%rax,%rax,1)
    981f:	00 00 00 00 
    9823:	66 66 2e 0f 1f 84 00 	data16 cs nopw 0x0(%rax,%rax,1)
    982a:	00 00 00 00 
    982e:	66 66 2e 0f 1f 84 00 	data16 cs nopw 0x0(%rax,%rax,1)
    9835:	00 00 00 00 
    9839:	66 66 2e 0f 1f 84 00 	data16 cs nopw 0x0(%rax,%rax,1)
    9840:	00 00 00 00 
    9844:	66 66 2e 0f 1f 84 00 	data16 cs nopw 0x0(%rax,%rax,1)
    984b:	00 00 00 00 
    984f:	66 66 2e 0f 1f 84 00 	data16 cs nopw 0x0(%rax,%rax,1)
    9856:	00 00 00 00 
    985a:	66 66 2e 0f 1f 84 00 	data16 cs nopw 0x0(%rax,%rax,1)
    9861:	00 00 00 00 
    9865:	66 66 2e 0f 1f 84 00 	data16 cs nopw 0x0(%rax,%rax,1)
    986c:	00 00 00 00 
    9870:	66 66 2e 0f 1f 84 00 	data16 cs nopw 0x0(%rax,%rax,1)
    9877:	00 00 00 00 
    987b:	66 66 2e 0f 1f 84 00 	data16 cs nopw 0x0(%rax,%rax,1)
    9882:	00 00 00 00 
    9886:	66 66 2e 0f 1f 84 00 	data16 cs nopw 0x0(%rax,%rax,1)
    988d:	00 00 00 00 
    9891:	66 66 2e 0f 1f 84 00 	data16 cs nopw 0x0(%rax,%rax,1)
    9898:	00 00 00 00 
    989c:	66 66 2e 0f 1f 84 00 	data16 cs nopw 0x0(%rax,%rax,1)
    98a3:	00 00 00 00 
    98a7:	66 66 2e 0f 1f 84 00 	data16 cs nopw 0x0(%rax,%rax,1)
    98ae:	00 00 00 00 
    98b2:	66 66 2e 0f 1f 84 00 	data16 cs nopw 0x0(%rax,%rax,1)
    98b9:	00 00 00 00 
    98bd:	66 66 2e 0f 1f 84 00 	data16 cs nopw 0x0(%rax,%rax,1)
    98c4:	00 00 00 00 
    98c8:	66 66 2e 0f 1f 84 00 	data16 cs nopw 0x0(%rax,%rax,1)
    98cf:	00 00 00 00 
    98d3:	66 66 2e 0f 1f 84 00 	data16 cs nopw 0x0(%rax,%rax,1)
    98da:	00 00 00 00 
    98de:	66 66 2e 0f 1f 84 00 	data16 cs nopw 0x0(%rax,%rax,1)
    98e5:	00 00 00 00 
    98e9:	66 66 2e 0f 1f 84 00 	data16 cs nopw 0x0(%rax,%rax,1)
    98f0:	00 00 00 00 
    98f4:	66 66 2e 0f 1f 84 00 	data16 cs nopw 0x0(%rax,%rax,1)
    98fb:	00 00 00 00 
    98ff:	66 66 2e 0f 1f 84 00 	data16 cs nopw 0x0(%rax,%rax,1)
    9906:	00 00 00 00 
    990a:	66 66 2e 0f 1f 84 00 	data16 cs nopw 0x0(%rax,%rax,1)
    9911:	00 00 00 00 
    9915:	66 66 2e 0f 1f 84 00 	data16 cs nopw 0x0(%rax,%rax,1)
    991c:	00 00 00 00 
    9920:	66 66 2e 0f 1f 84 00 	data16 cs nopw 0x0(%rax,%rax,1)
    9927:	00 00 00 00 
    992b:	66 66 2e 0f 1f 84 00 	data16 cs nopw 0x0(%rax,%rax,1)
    9932:	00 00 00 00 
    9936:	66 66 2e 0f 1f 84 00 	data16 cs nopw 0x0(%rax,%rax,1)
    993d:	00 00 00 00 
    9941:	66 66 2e 0f 1f 84 00 	data16 cs nopw 0x0(%rax,%rax,1)
    9948:	00 00 00 00 
    994c:	66 66 2e 0f 1f 84 00 	data16 cs nopw 0x0(%rax,%rax,1)
    9953:	00 00 00 00 
    9957:	66 66 2e 0f 1f 84 00 	data16 cs nopw 0x0(%rax,%rax,1)
    995e:	00 00 00 00 
    9962:	66 66 2e 0f 1f 84 00 	data16 cs nopw 0x0(%rax,%rax,1)
    9969:	00 00 00 00 
    996d:	66 66 2e 0f 1f 84 00 	data16 cs nopw 0x0(%rax,%rax,1)
    9974:	00 00 00 00 
    9978:	66 66 2e 0f 1f 84 00 	data16 cs nopw 0x0(%rax,%rax,1)
    997f:	00 00 00 00 
    9983:	66 66 2e 0f 1f 84 00 	data16 cs nopw 0x0(%rax,%rax,1)
    998a:	00 00 00 00 
    998e:	66 66 2e 0f 1f 84 00 	data16 cs nopw 0x0(%rax,%rax,1)
    9995:	00 00 00 00 
    9999:	66 66 2e 0f 1f 84 00 	data16 cs nopw 0x0(%rax,%rax,1)
    99a0:	00 00 00 00 
    99a4:	66 66 2e 0f 1f 84 00 	data16 cs nopw 0x0(%rax,%rax,1)
    99ab:	00 00 00 00 
    99af:	66 66 2e 0f 1f 84 00 	data16 cs nopw 0x0(%rax,%rax,1)
    99b6:	00 00 00 00 
    99ba:	66 66 2e 0f 1f 84 00 	data16 cs nopw 0x0(%rax,%rax,1)
    99c1:	00 00 00 00 
    99c5:	66 66 2e 0f 1f 84 00 	data16 cs nopw 0x0(%rax,%rax,1)
    99cc:	00 00 00 00 
    99d0:	66 66 2e 0f 1f 84 00 	data16 cs nopw 0x0(%rax,%rax,1)
    99d7:	00 00 00 00 
    99db:	66 66 2e 0f 1f 84 00 	data16 cs nopw 0x0(%rax,%rax,1)
    99e2:	00 00 00 00 
    99e6:	66 66 2e 0f 1f 84 00 	data16 cs nopw 0x0(%rax,%rax,1)
    99ed:	00 00 00 00 
    99f1:	66 66 2e 0f 1f 84 00 	data16 cs nopw 0x0(%rax,%rax,1)
    99f8:	00 00 00 00 
    99fc:	66 66 2e 0f 1f 84 00 	data16 cs nopw 0x0(%rax,%rax,1)
    9a03:	00 00 00 00 
    9a07:	66 66 2e 0f 1f 84 00 	data16 cs nopw 0x0(%rax,%rax,1)
    9a0e:	00 00 00 00 
    9a12:	66 66 2e 0f 1f 84 00 	data16 cs nopw 0x0(%rax,%rax,1)
    9a19:	00 00 00 00 
    9a1d:	66 66 2e 0f 1f 84 00 	data16 cs nopw 0x0(%rax,%rax,1)
    9a24:	00 00 00 00 
    9a28:	66 66 2e 0f 1f 84 00 	data16 cs nopw 0x0(%rax,%rax,1)
    9a2f:	00 00 00 00 
    9a33:	66 66 2e 0f 1f 84 00 	data16 cs nopw 0x0(%rax,%rax,1)
    9a3a:	00 00 00 00 
    9a3e:	66 66 2e 0f 1f 84 00 	data16 cs nopw 0x0(%rax,%rax,1)
    9a45:	00 00 00 00 
    9a49:	66 66 2e 0f 1f 84 00 	data16 cs nopw 0x0(%rax,%rax,1)
    9a50:	00 00 00 00 
    9a54:	66 66 2e 0f 1f 84 00 	data16 cs nopw 0x0(%rax,%rax,1)
    9a5b:	00 00 00 00 
    9a5f:	66 66 2e 0f 1f 84 00 	data16 cs nopw 0x0(%rax,%rax,1)
    9a66:	00 00 00 00 
    9a6a:	66 66 2e 0f 1f 84 00 	data16 cs nopw 0x0(%rax,%rax,1)
    9a71:	00 00 00 00 
    9a75:	66 66 2e 0f 1f 84 00 	data16 cs nopw 0x0(%rax,%rax,1)
    9a7c:	00 00 00 00 
    9a80:	66 66 2e 0f 1f 84 00 	data16 cs nopw 0x0(%rax,%rax,1)
    9a87:	00 00 00 00 
    9a8b:	66 66 2e 0f 1f 84 00 	data16 cs nopw 0x0(%rax,%rax,1)
    9a92:	00 00 00 00 
    9a96:	66 66 2e 0f 1f 84 00 	data16 cs nopw 0x0(%rax,%rax,1)
    9a9d:	00 00 00 00 
    9aa1:	66 66 2e 0f 1f 84 00 	data16 cs nopw 0x0(%rax,%rax,1)
    9aa8:	00 00 00 00 
    9aac:	66 66 2e 0f 1f 84 00 	data16 cs nopw 0x0(%rax,%rax,1)
    9ab3:	00 00 00 00 
    9ab7:	66 66 2e 0f 1f 84 00 	data16 cs nopw 0x0(%rax,%rax,1)
    9abe:	00 00 00 00 
    9ac2:	66 66 2e 0f 1f 84 00 	data16 cs nopw 0x0(%rax,%rax,1)
    9ac9:	00 00 00 00 
    9acd:	66 66 2e 0f 1f 84 00 	data16 cs nopw 0x0(%rax,%rax,1)
    9ad4:	00 00 00 00 
    9ad8:	66 66 2e 0f 1f 84 00 	data16 cs nopw 0x0(%rax,%rax,1)
    9adf:	00 00 00 00 
    9ae3:	66 66 2e 0f 1f 84 00 	data16 cs nopw 0x0(%rax,%rax,1)
    9aea:	00 00 00 00 
    9aee:	66 66 2e 0f 1f 84 00 	data16 cs nopw 0x0(%rax,%rax,1)
    9af5:	00 00 00 00 
    9af9:	66 66 2e 0f 1f 84 00 	data16 cs nopw 0x0(%rax,%rax,1)
    9b00:	00 00 00 00 
    9b04:	66 66 2e 0f 1f 84 00 	data16 cs nopw 0x0(%rax,%rax,1)
    9b0b:	00 00 00 00 
    9b0f:	66 66 2e 0f 1f 84 00 	data16 cs nopw 0x0(%rax,%rax,1)
    9b16:	00 00 00 00 
    9b1a:	66 66 2e 0f 1f 84 00 	data16 cs nopw 0x0(%rax,%rax,1)
    9b21:	00 00 00 00 
    9b25:	66 66 2e 0f 1f 84 00 	data16 cs nopw 0x0(%rax,%rax,1)
    9b2c:	00 00 00 00 
    9b30:	66 66 2e 0f 1f 84 00 	data16 cs nopw 0x0(%rax,%rax,1)
    9b37:	00 00 00 00 
    9b3b:	66 66 2e 0f 1f 84 00 	data16 cs nopw 0x0(%rax,%rax,1)
    9b42:	00 00 00 00 
    9b46:	66 66 2e 0f 1f 84 00 	data16 cs nopw 0x0(%rax,%rax,1)
    9b4d:	00 00 00 00 
    9b51:	66 66 2e 0f 1f 84 00 	data16 cs nopw 0x0(%rax,%rax,1)
    9b58:	00 00 00 00 
    9b5c:	66 66 2e 0f 1f 84 00 	data16 cs nopw 0x0(%rax,%rax,1)
    9b63:	00 00 00 00 
    9b67:	66 66 2e 0f 1f 84 00 	data16 cs nopw 0x0(%rax,%rax,1)
    9b6e:	00 00 00 00 
    9b72:	66 66 2e 0f 1f 84 00 	data16 cs nopw 0x0(%rax,%rax,1)
    9b79:	00 00 00 00 
    9b7d:	66 66 2e 0f 1f 84 00 	data16 cs nopw 0x0(%rax,%rax,1)
    9b84:	00 00 00 00 
    9b88:	66 66 2e 0f 1f 84 00 	data16 cs nopw 0x0(%rax,%rax,1)
    9b8f:	00 00 00 00 
    9b93:	66 66 2e 0f 1f 84 00 	data16 cs nopw 0x0(%rax,%rax,1)
    9b9a:	00 00 00 00 
    9b9e:	66 66 2e 0f 1f 84 00 	data16 cs nopw 0x0(%rax,%rax,1)
    9ba5:	00 00 00 00 
    9ba9:	66 66 2e 0f 1f 84 00 	data16 cs nopw 0x0(%rax,%rax,1)
    9bb0:	00 00 00 00 
    9bb4:	66 66 2e 0f 1f 84 00 	data16 cs nopw 0x0(%rax,%rax,1)
    9bbb:	00 00 00 00 
    9bbf:	66 66 2e 0f 1f 84 00 	data16 cs nopw 0x0(%rax,%rax,1)
    9bc6:	00 00 00 00 
    9bca:	66 66 2e 0f 1f 84 00 	data16 cs nopw 0x0(%rax,%rax,1)
    9bd1:	00 00 00 00 
    9bd5:	66 66 2e 0f 1f 84 00 	data16 cs nopw 0x0(%rax,%rax,1)
    9bdc:	00 00 00 00 
    9be0:	66 66 2e 0f 1f 84 00 	data16 cs nopw 0x0(%rax,%rax,1)
    9be7:	00 00 00 00 
    9beb:	66 66 2e 0f 1f 84 00 	data16 cs nopw 0x0(%rax,%rax,1)
    9bf2:	00 00 00 00 
    9bf6:	66 66 2e 0f 1f 84 00 	data16 cs nopw 0x0(%rax,%rax,1)
    9bfd:	00 00 00 00 
    9c01:	66 66 2e 0f 1f 84 00 	data16 cs nopw 0x0(%rax,%rax,1)
    9c08:	00 00 00 00 
    9c0c:	66 66 2e 0f 1f 84 00 	data16 cs nopw 0x0(%rax,%rax,1)
    9c13:	00 00 00 00 
    9c17:	66 66 2e 0f 1f 84 00 	data16 cs nopw 0x0(%rax,%rax,1)
    9c1e:	00 00 00 00 
    9c22:	66 66 2e 0f 1f 84 00 	data16 cs nopw 0x0(%rax,%rax,1)
    9c29:	00 00 00 00 
    9c2d:	66 66 2e 0f 1f 84 00 	data16 cs nopw 0x0(%rax,%rax,1)
    9c34:	00 00 00 00 
    9c38:	66 66 2e 0f 1f 84 00 	data16 cs nopw 0x0(%rax,%rax,1)
    9c3f:	00 00 00 00 
    9c43:	66 66 2e 0f 1f 84 00 	data16 cs nopw 0x0(%rax,%rax,1)
    9c4a:	00 00 00 00 
    9c4e:	66 66 2e 0f 1f 84 00 	data16 cs nopw 0x0(%rax,%rax,1)
    9c55:	00 00 00 00 
    9c59:	66 66 2e 0f 1f 84 00 	data16 cs nopw 0x0(%rax,%rax,1)
    9c60:	00 00 00 00 
    9c64:	66 66 2e 0f 1f 84 00 	data16 cs nopw 0x0(%rax,%rax,1)
    9c6b:	00 00 00 00 
    9c6f:	66 66 2e 0f 1f 84 00 	data16 cs nopw 0x0(%rax,%rax,1)
    9c76:	00 00 00 00 
    9c7a:	66 66 2e 0f 1f 84 00 	data16 cs nopw 0x0(%rax,%rax,1)
    9c81:	00 00 00 00 
    9c85:	66 66 2e 0f 1f 84 00 	data16 cs nopw 0x0(%rax,%rax,1)
    9c8c:	00 00 00 00 
    9c90:	66 66 2e 0f 1f 84 00 	data16 cs nopw 0x0(%rax,%rax,1)
    9c97:	00 00 00 00 
    9c9b:	66 66 2e 0f 1f 84 00 	data16 cs nopw 0x0(%rax,%rax,1)
    9ca2:	00 00 00 00 
    9ca6:	66 66 2e 0f 1f 84 00 	data16 cs nopw 0x0(%rax,%rax,1)
    9cad:	00 00 00 00 
    9cb1:	66 66 2e 0f 1f 84 00 	data16 cs nopw 0x0(%rax,%rax,1)
    9cb8:	00 00 00 00 
    9cbc:	66 66 2e 0f 1f 84 00 	data16 cs nopw 0x0(%rax,%rax,1)
    9cc3:	00 00 00 00 
    9cc7:	66 66 2e 0f 1f 84 00 	data16 cs nopw 0x0(%rax,%rax,1)
    9cce:	00 00 00 00 
    9cd2:	66 66 2e 0f 1f 84 00 	data16 cs nopw 0x0(%rax,%rax,1)
    9cd9:	00 00 00 00 
    9cdd:	66 66 2e 0f 1f 84 00 	data16 cs nopw 0x0(%rax,%rax,1)
    9ce4:	00 00 00 00 
    9ce8:	66 66 2e 0f 1f 84 00 	data16 cs nopw 0x0(%rax,%rax,1)
    9cef:	00 00 00 00 
    9cf3:	66 66 2e 0f 1f 84 00 	data16 cs nopw 0x0(%rax,%rax,1)
    9cfa:	00 00 00 00 
    9cfe:	66 66 2e 0f 1f 84 00 	data16 cs nopw 0x0(%rax,%rax,1)
    9d05:	00 00 00 00 
    9d09:	66 66 2e 0f 1f 84 00 	data16 cs nopw 0x0(%rax,%rax,1)
    9d10:	00 00 00 00 
    9d14:	66 66 2e 0f 1f 84 00 	data16 cs nopw 0x0(%rax,%rax,1)
    9d1b:	00 00 00 00 
    9d1f:	66 66 2e 0f 1f 84 00 	data16 cs nopw 0x0(%rax,%rax,1)
    9d26:	00 00 00 00 
    9d2a:	66 66 2e 0f 1f 84 00 	data16 cs nopw 0x0(%rax,%rax,1)
    9d31:	00 00 00 00 
    9d35:	66 66 2e 0f 1f 84 00 	data16 cs nopw 0x0(%rax,%rax,1)
    9d3c:	00 00 00 00 
    9d40:	66 66 2e 0f 1f 84 00 	data16 cs nopw 0x0(%rax,%rax,1)
    9d47:	00 00 00 00 
    9d4b:	66 66 2e 0f 1f 84 00 	data16 cs nopw 0x0(%rax,%rax,1)
    9d52:	00 00 00 00 
    9d56:	66 66 2e 0f 1f 84 00 	data16 cs nopw 0x0(%rax,%rax,1)
    9d5d:	00 00 00 00 
    9d61:	66 66 2e 0f 1f 84 00 	data16 cs nopw 0x0(%rax,%rax,1)
    9d68:	00 00 00 00 
    9d6c:	66 66 2e 0f 1f 84 00 	data16 cs nopw 0x0(%rax,%rax,1)
    9d73:	00 00 00 00 
    9d77:	66 66 2e 0f 1f 84 00 	data16 cs nopw 0x0(%rax,%rax,1)
    9d7e:	00 00 00 00 
    9d82:	66 66 2e 0f 1f 84 00 	data16 cs nopw 0x0(%rax,%rax,1)
    9d89:	00 00 00 00 
    9d8d:	66 66 2e 0f 1f 84 00 	data16 cs nopw 0x0(%rax,%rax,1)
    9d94:	00 00 00 00 
    9d98:	66 66 2e 0f 1f 84 00 	data16 cs nopw 0x0(%rax,%rax,1)
    9d9f:	00 00 00 00 
    9da3:	66 66 2e 0f 1f 84 00 	data16 cs nopw 0x0(%rax,%rax,1)
    9daa:	00 00 00 00 
    9dae:	66 66 2e 0f 1f 84 00 	data16 cs nopw 0x0(%rax,%rax,1)
    9db5:	00 00 00 00 
    9db9:	66 66 2e 0f 1f 84 00 	data16 cs nopw 0x0(%rax,%rax,1)
    9dc0:	00 00 00 00 
    9dc4:	66 66 2e 0f 1f 84 00 	data16 cs nopw 0x0(%rax,%rax,1)
    9dcb:	00 00 00 00 
    9dcf:	66 66 2e 0f 1f 84 00 	data16 cs nopw 0x0(%rax,%rax,1)
    9dd6:	00 00 00 00 
    9dda:	66 66 2e 0f 1f 84 00 	data16 cs nopw 0x0(%rax,%rax,1)
    9de1:	00 00 00 00 
    9de5:	66 66 2e 0f 1f 84 00 	data16 cs nopw 0x0(%rax,%rax,1)
    9dec:	00 00 00 00 
    9df0:	66 66 2e 0f 1f 84 00 	data16 cs nopw 0x0(%rax,%rax,1)
    9df7:	00 00 00 00 
    9dfb:	66 66 2e 0f 1f 84 00 	data16 cs nopw 0x0(%rax,%rax,1)
    9e02:	00 00 00 00 
    9e06:	66 66 2e 0f 1f 84 00 	data16 cs nopw 0x0(%rax,%rax,1)
    9e0d:	00 00 00 00 
    9e11:	66 66 2e 0f 1f 84 00 	data16 cs nopw 0x0(%rax,%rax,1)
    9e18:	00 00 00 00 
    9e1c:	66 66 2e 0f 1f 84 00 	data16 cs nopw 0x0(%rax,%rax,1)
    9e23:	00 00 00 00 
    9e27:	66 66 2e 0f 1f 84 00 	data16 cs nopw 0x0(%rax,%rax,1)
    9e2e:	00 00 00 00 
    9e32:	66 66 2e 0f 1f 84 00 	data16 cs nopw 0x0(%rax,%rax,1)
    9e39:	00 00 00 00 
    9e3d:	66 66 2e 0f 1f 84 00 	data16 cs nopw 0x0(%rax,%rax,1)
    9e44:	00 00 00 00 
    9e48:	66 66 2e 0f 1f 84 00 	data16 cs nopw 0x0(%rax,%rax,1)
    9e4f:	00 00 00 00 
    9e53:	66 66 2e 0f 1f 84 00 	data16 cs nopw 0x0(%rax,%rax,1)
    9e5a:	00 00 00 00 
    9e5e:	66 66 2e 0f 1f 84 00 	data16 cs nopw 0x0(%rax,%rax,1)
    9e65:	00 00 00 00 
    9e69:	66 66 2e 0f 1f 84 00 	data16 cs nopw 0x0(%rax,%rax,1)
    9e70:	00 00 00 00 
    9e74:	66 66 2e 0f 1f 84 00 	data16 cs nopw 0x0(%rax,%rax,1)
    9e7b:	00 00 00 00 
    9e7f:	66 66 2e 0f 1f 84 00 	data16 cs nopw 0x0(%rax,%rax,1)
    9e86:	00 00 00 00 
    9e8a:	66 66 2e 0f 1f 84 00 	data16 cs nopw 0x0(%rax,%rax,1)
    9e91:	00 00 00 00 
    9e95:	66 66 2e 0f 1f 84 00 	data16 cs nopw 0x0(%rax,%rax,1)
    9e9c:	00 00 00 00 
    9ea0:	66 66 2e 0f 1f 84 00 	data16 cs nopw 0x0(%rax,%rax,1)
    9ea7:	00 00 00 00 
    9eab:	66 66 2e 0f 1f 84 00 	data16 cs nopw 0x0(%rax,%rax,1)
    9eb2:	00 00 00 00 
    9eb6:	66 66 2e 0f 1f 84 00 	data16 cs nopw 0x0(%rax,%rax,1)
    9ebd:	00 00 00 00 
    9ec1:	66 66 2e 0f 1f 84 00 	data16 cs nopw 0x0(%rax,%rax,1)
    9ec8:	00 00 00 00 
    9ecc:	66 66 2e 0f 1f 84 00 	data16 cs nopw 0x0(%rax,%rax,1)
    9ed3:	00 00 00 00 
    9ed7:	66 66 2e 0f 1f 84 00 	data16 cs nopw 0x0(%rax,%rax,1)
    9ede:	00 00 00 00 
    9ee2:	66 66 2e 0f 1f 84 00 	data16 cs nopw 0x0(%rax,%rax,1)
    9ee9:	00 00 00 00 
    9eed:	66 66 2e 0f 1f 84 00 	data16 cs nopw 0x0(%rax,%rax,1)
    9ef4:	00 00 00 00 
    9ef8:	66 66 2e 0f 1f 84 00 	data16 cs nopw 0x0(%rax,%rax,1)
    9eff:	00 00 00 00 
    9f03:	66 66 2e 0f 1f 84 00 	data16 cs nopw 0x0(%rax,%rax,1)
    9f0a:	00 00 00 00 
    9f0e:	66 66 2e 0f 1f 84 00 	data16 cs nopw 0x0(%rax,%rax,1)
    9f15:	00 00 00 00 
    9f19:	66 66 2e 0f 1f 84 00 	data16 cs nopw 0x0(%rax,%rax,1)
    9f20:	00 00 00 00 
    9f24:	66 66 2e 0f 1f 84 00 	data16 cs nopw 0x0(%rax,%rax,1)
    9f2b:	00 00 00 00 
    9f2f:	66 66 2e 0f 1f 84 00 	data16 cs nopw 0x0(%rax,%rax,1)
    9f36:	00 00 00 00 
    9f3a:	66 66 2e 0f 1f 84 00 	data16 cs nopw 0x0(%rax,%rax,1)
    9f41:	00 00 00 00 
    9f45:	66 66 2e 0f 1f 84 00 	data16 cs nopw 0x0(%rax,%rax,1)
    9f4c:	00 00 00 00 
    9f50:	66 66 2e 0f 1f 84 00 	data16 cs nopw 0x0(%rax,%rax,1)
    9f57:	00 00 00 00 
    9f5b:	66 66 2e 0f 1f 84 00 	data16 cs nopw 0x0(%rax,%rax,1)
    9f62:	00 00 00 00 
    9f66:	66 66 2e 0f 1f 84 00 	data16 cs nopw 0x0(%rax,%rax,1)
    9f6d:	00 00 00 00 
    9f71:	66 66 2e 0f 1f 84 00 	data16 cs nopw 0x0(%rax,%rax,1)
    9f78:	00 00 00 00 
    9f7c:	66 66 2e 0f 1f 84 00 	data16 cs nopw 0x0(%rax,%rax,1)
    9f83:	00 00 00 00 
    9f87:	66 66 2e 0f 1f 84 00 	data16 cs nopw 0x0(%rax,%rax,1)
    9f8e:	00 00 00 00 
    9f92:	66 66 2e 0f 1f 84 00 	data16 cs nopw 0x0(%rax,%rax,1)
    9f99:	00 00 00 00 
    9f9d:	66 66 2e 0f 1f 84 00 	data16 cs nopw 0x0(%rax,%rax,1)
    9fa4:	00 00 00 00 
    9fa8:	66 66 2e 0f 1f 84 00 	data16 cs nopw 0x0(%rax,%rax,1)
    9faf:	00 00 00 00 
    9fb3:	66 66 2e 0f 1f 84 00 	data16 cs nopw 0x0(%rax,%rax,1)
    9fba:	00 00 00 00 
    9fbe:	66 66 2e 0f 1f 84 00 	data16 cs nopw 0x0(%rax,%rax,1)
    9fc5:	00 00 00 00 
    9fc9:	66 66 2e 0f 1f 84 00 	data16 cs nopw 0x0(%rax,%rax,1)
    9fd0:	00 00 00 00 
    9fd4:	66 66 2e 0f 1f 84 00 	data16 cs nopw 0x0(%rax,%rax,1)
    9fdb:	00 00 00 00 
    9fdf:	66 66 2e 0f 1f 84 00 	data16 cs nopw 0x0(%rax,%rax,1)
    9fe6:	00 00 00 00 
    9fea:	66 66 2e 0f 1f 84 00 	data16 cs nopw 0x0(%rax,%rax,1)
    9ff1:	00 00 00 00 
    9ff5:	66 66 2e 0f 1f 84 00 	data16 cs nopw 0x0(%rax,%rax,1)
    9ffc:	00 00 00 00 

000000000000a000 <pdpt>:
    a000:	03 b0 00 00 00 00    	add    0x0(%rax),%esi
    a006:	00 00                	add    %al,(%rax)
    a008:	90                   	nop
    a009:	e9 f2 0f 00 00       	jmp    b000 <pd>
    a00e:	90                   	nop
    a00f:	66 66 2e 0f 1f 84 00 	data16 cs nopw 0x0(%rax,%rax,1)
    a016:	00 00 00 00 
    a01a:	66 66 2e 0f 1f 84 00 	data16 cs nopw 0x0(%rax,%rax,1)
    a021:	00 00 00 00 
    a025:	66 66 2e 0f 1f 84 00 	data16 cs nopw 0x0(%rax,%rax,1)
    a02c:	00 00 00 00 
    a030:	66 66 2e 0f 1f 84 00 	data16 cs nopw 0x0(%rax,%rax,1)
    a037:	00 00 00 00 
    a03b:	66 66 2e 0f 1f 84 00 	data16 cs nopw 0x0(%rax,%rax,1)
    a042:	00 00 00 00 
    a046:	66 66 2e 0f 1f 84 00 	data16 cs nopw 0x0(%rax,%rax,1)
    a04d:	00 00 00 00 
    a051:	66 66 2e 0f 1f 84 00 	data16 cs nopw 0x0(%rax,%rax,1)
    a058:	00 00 00 00 
    a05c:	66 66 2e 0f 1f 84 00 	data16 cs nopw 0x0(%rax,%rax,1)
    a063:	00 00 00 00 
    a067:	66 66 2e 0f 1f 84 00 	data16 cs nopw 0x0(%rax,%rax,1)
    a06e:	00 00 00 00 
    a072:	66 66 2e 0f 1f 84 00 	data16 cs nopw 0x0(%rax,%rax,1)
    a079:	00 00 00 00 
    a07d:	66 66 2e 0f 1f 84 00 	data16 cs nopw 0x0(%rax,%rax,1)
    a084:	00 00 00 00 
    a088:	66 66 2e 0f 1f 84 00 	data16 cs nopw 0x0(%rax,%rax,1)
    a08f:	00 00 00 00 
    a093:	66 66 2e 0f 1f 84 00 	data16 cs nopw 0x0(%rax,%rax,1)
    a09a:	00 00 00 00 
    a09e:	66 66 2e 0f 1f 84 00 	data16 cs nopw 0x0(%rax,%rax,1)
    a0a5:	00 00 00 00 
    a0a9:	66 66 2e 0f 1f 84 00 	data16 cs nopw 0x0(%rax,%rax,1)
    a0b0:	00 00 00 00 
    a0b4:	66 66 2e 0f 1f 84 00 	data16 cs nopw 0x0(%rax,%rax,1)
    a0bb:	00 00 00 00 
    a0bf:	66 66 2e 0f 1f 84 00 	data16 cs nopw 0x0(%rax,%rax,1)
    a0c6:	00 00 00 00 
    a0ca:	66 66 2e 0f 1f 84 00 	data16 cs nopw 0x0(%rax,%rax,1)
    a0d1:	00 00 00 00 
    a0d5:	66 66 2e 0f 1f 84 00 	data16 cs nopw 0x0(%rax,%rax,1)
    a0dc:	00 00 00 00 
    a0e0:	66 66 2e 0f 1f 84 00 	data16 cs nopw 0x0(%rax,%rax,1)
    a0e7:	00 00 00 00 
    a0eb:	66 66 2e 0f 1f 84 00 	data16 cs nopw 0x0(%rax,%rax,1)
    a0f2:	00 00 00 00 
    a0f6:	66 66 2e 0f 1f 84 00 	data16 cs nopw 0x0(%rax,%rax,1)
    a0fd:	00 00 00 00 
    a101:	66 66 2e 0f 1f 84 00 	data16 cs nopw 0x0(%rax,%rax,1)
    a108:	00 00 00 00 
    a10c:	66 66 2e 0f 1f 84 00 	data16 cs nopw 0x0(%rax,%rax,1)
    a113:	00 00 00 00 
    a117:	66 66 2e 0f 1f 84 00 	data16 cs nopw 0x0(%rax,%rax,1)
    a11e:	00 00 00 00 
    a122:	66 66 2e 0f 1f 84 00 	data16 cs nopw 0x0(%rax,%rax,1)
    a129:	00 00 00 00 
    a12d:	66 66 2e 0f 1f 84 00 	data16 cs nopw 0x0(%rax,%rax,1)
    a134:	00 00 00 00 
    a138:	66 66 2e 0f 1f 84 00 	data16 cs nopw 0x0(%rax,%rax,1)
    a13f:	00 00 00 00 
    a143:	66 66 2e 0f 1f 84 00 	data16 cs nopw 0x0(%rax,%rax,1)
    a14a:	00 00 00 00 
    a14e:	66 66 2e 0f 1f 84 00 	data16 cs nopw 0x0(%rax,%rax,1)
    a155:	00 00 00 00 
    a159:	66 66 2e 0f 1f 84 00 	data16 cs nopw 0x0(%rax,%rax,1)
    a160:	00 00 00 00 
    a164:	66 66 2e 0f 1f 84 00 	data16 cs nopw 0x0(%rax,%rax,1)
    a16b:	00 00 00 00 
    a16f:	66 66 2e 0f 1f 84 00 	data16 cs nopw 0x0(%rax,%rax,1)
    a176:	00 00 00 00 
    a17a:	66 66 2e 0f 1f 84 00 	data16 cs nopw 0x0(%rax,%rax,1)
    a181:	00 00 00 00 
    a185:	66 66 2e 0f 1f 84 00 	data16 cs nopw 0x0(%rax,%rax,1)
    a18c:	00 00 00 00 
    a190:	66 66 2e 0f 1f 84 00 	data16 cs nopw 0x0(%rax,%rax,1)
    a197:	00 00 00 00 
    a19b:	66 66 2e 0f 1f 84 00 	data16 cs nopw 0x0(%rax,%rax,1)
    a1a2:	00 00 00 00 
    a1a6:	66 66 2e 0f 1f 84 00 	data16 cs nopw 0x0(%rax,%rax,1)
    a1ad:	00 00 00 00 
    a1b1:	66 66 2e 0f 1f 84 00 	data16 cs nopw 0x0(%rax,%rax,1)
    a1b8:	00 00 00 00 
    a1bc:	66 66 2e 0f 1f 84 00 	data16 cs nopw 0x0(%rax,%rax,1)
    a1c3:	00 00 00 00 
    a1c7:	66 66 2e 0f 1f 84 00 	data16 cs nopw 0x0(%rax,%rax,1)
    a1ce:	00 00 00 00 
    a1d2:	66 66 2e 0f 1f 84 00 	data16 cs nopw 0x0(%rax,%rax,1)
    a1d9:	00 00 00 00 
    a1dd:	66 66 2e 0f 1f 84 00 	data16 cs nopw 0x0(%rax,%rax,1)
    a1e4:	00 00 00 00 
    a1e8:	66 66 2e 0f 1f 84 00 	data16 cs nopw 0x0(%rax,%rax,1)
    a1ef:	00 00 00 00 
    a1f3:	66 66 2e 0f 1f 84 00 	data16 cs nopw 0x0(%rax,%rax,1)
    a1fa:	00 00 00 00 
    a1fe:	66 66 2e 0f 1f 84 00 	data16 cs nopw 0x0(%rax,%rax,1)
    a205:	00 00 00 00 
    a209:	66 66 2e 0f 1f 84 00 	data16 cs nopw 0x0(%rax,%rax,1)
    a210:	00 00 00 00 
    a214:	66 66 2e 0f 1f 84 00 	data16 cs nopw 0x0(%rax,%rax,1)
    a21b:	00 00 00 00 
    a21f:	66 66 2e 0f 1f 84 00 	data16 cs nopw 0x0(%rax,%rax,1)
    a226:	00 00 00 00 
    a22a:	66 66 2e 0f 1f 84 00 	data16 cs nopw 0x0(%rax,%rax,1)
    a231:	00 00 00 00 
    a235:	66 66 2e 0f 1f 84 00 	data16 cs nopw 0x0(%rax,%rax,1)
    a23c:	00 00 00 00 
    a240:	66 66 2e 0f 1f 84 00 	data16 cs nopw 0x0(%rax,%rax,1)
    a247:	00 00 00 00 
    a24b:	66 66 2e 0f 1f 84 00 	data16 cs nopw 0x0(%rax,%rax,1)
    a252:	00 00 00 00 
    a256:	66 66 2e 0f 1f 84 00 	data16 cs nopw 0x0(%rax,%rax,1)
    a25d:	00 00 00 00 
    a261:	66 66 2e 0f 1f 84 00 	data16 cs nopw 0x0(%rax,%rax,1)
    a268:	00 00 00 00 
    a26c:	66 66 2e 0f 1f 84 00 	data16 cs nopw 0x0(%rax,%rax,1)
    a273:	00 00 00 00 
    a277:	66 66 2e 0f 1f 84 00 	data16 cs nopw 0x0(%rax,%rax,1)
    a27e:	00 00 00 00 
    a282:	66 66 2e 0f 1f 84 00 	data16 cs nopw 0x0(%rax,%rax,1)
    a289:	00 00 00 00 
    a28d:	66 66 2e 0f 1f 84 00 	data16 cs nopw 0x0(%rax,%rax,1)
    a294:	00 00 00 00 
    a298:	66 66 2e 0f 1f 84 00 	data16 cs nopw 0x0(%rax,%rax,1)
    a29f:	00 00 00 00 
    a2a3:	66 66 2e 0f 1f 84 00 	data16 cs nopw 0x0(%rax,%rax,1)
    a2aa:	00 00 00 00 
    a2ae:	66 66 2e 0f 1f 84 00 	data16 cs nopw 0x0(%rax,%rax,1)
    a2b5:	00 00 00 00 
    a2b9:	66 66 2e 0f 1f 84 00 	data16 cs nopw 0x0(%rax,%rax,1)
    a2c0:	00 00 00 00 
    a2c4:	66 66 2e 0f 1f 84 00 	data16 cs nopw 0x0(%rax,%rax,1)
    a2cb:	00 00 00 00 
    a2cf:	66 66 2e 0f 1f 84 00 	data16 cs nopw 0x0(%rax,%rax,1)
    a2d6:	00 00 00 00 
    a2da:	66 66 2e 0f 1f 84 00 	data16 cs nopw 0x0(%rax,%rax,1)
    a2e1:	00 00 00 00 
    a2e5:	66 66 2e 0f 1f 84 00 	data16 cs nopw 0x0(%rax,%rax,1)
    a2ec:	00 00 00 00 
    a2f0:	66 66 2e 0f 1f 84 00 	data16 cs nopw 0x0(%rax,%rax,1)
    a2f7:	00 00 00 00 
    a2fb:	66 66 2e 0f 1f 84 00 	data16 cs nopw 0x0(%rax,%rax,1)
    a302:	00 00 00 00 
    a306:	66 66 2e 0f 1f 84 00 	data16 cs nopw 0x0(%rax,%rax,1)
    a30d:	00 00 00 00 
    a311:	66 66 2e 0f 1f 84 00 	data16 cs nopw 0x0(%rax,%rax,1)
    a318:	00 00 00 00 
    a31c:	66 66 2e 0f 1f 84 00 	data16 cs nopw 0x0(%rax,%rax,1)
    a323:	00 00 00 00 
    a327:	66 66 2e 0f 1f 84 00 	data16 cs nopw 0x0(%rax,%rax,1)
    a32e:	00 00 00 00 
    a332:	66 66 2e 0f 1f 84 00 	data16 cs nopw 0x0(%rax,%rax,1)
    a339:	00 00 00 00 
    a33d:	66 66 2e 0f 1f 84 00 	data16 cs nopw 0x0(%rax,%rax,1)
    a344:	00 00 00 00 
    a348:	66 66 2e 0f 1f 84 00 	data16 cs nopw 0x0(%rax,%rax,1)
    a34f:	00 00 00 00 
    a353:	66 66 2e 0f 1f 84 00 	data16 cs nopw 0x0(%rax,%rax,1)
    a35a:	00 00 00 00 
    a35e:	66 66 2e 0f 1f 84 00 	data16 cs nopw 0x0(%rax,%rax,1)
    a365:	00 00 00 00 
    a369:	66 66 2e 0f 1f 84 00 	data16 cs nopw 0x0(%rax,%rax,1)
    a370:	00 00 00 00 
    a374:	66 66 2e 0f 1f 84 00 	data16 cs nopw 0x0(%rax,%rax,1)
    a37b:	00 00 00 00 
    a37f:	66 66 2e 0f 1f 84 00 	data16 cs nopw 0x0(%rax,%rax,1)
    a386:	00 00 00 00 
    a38a:	66 66 2e 0f 1f 84 00 	data16 cs nopw 0x0(%rax,%rax,1)
    a391:	00 00 00 00 
    a395:	66 66 2e 0f 1f 84 00 	data16 cs nopw 0x0(%rax,%rax,1)
    a39c:	00 00 00 00 
    a3a0:	66 66 2e 0f 1f 84 00 	data16 cs nopw 0x0(%rax,%rax,1)
    a3a7:	00 00 00 00 
    a3ab:	66 66 2e 0f 1f 84 00 	data16 cs nopw 0x0(%rax,%rax,1)
    a3b2:	00 00 00 00 
    a3b6:	66 66 2e 0f 1f 84 00 	data16 cs nopw 0x0(%rax,%rax,1)
    a3bd:	00 00 00 00 
    a3c1:	66 66 2e 0f 1f 84 00 	data16 cs nopw 0x0(%rax,%rax,1)
    a3c8:	00 00 00 00 
    a3cc:	66 66 2e 0f 1f 84 00 	data16 cs nopw 0x0(%rax,%rax,1)
    a3d3:	00 00 00 00 
    a3d7:	66 66 2e 0f 1f 84 00 	data16 cs nopw 0x0(%rax,%rax,1)
    a3de:	00 00 00 00 
    a3e2:	66 66 2e 0f 1f 84 00 	data16 cs nopw 0x0(%rax,%rax,1)
    a3e9:	00 00 00 00 
    a3ed:	66 66 2e 0f 1f 84 00 	data16 cs nopw 0x0(%rax,%rax,1)
    a3f4:	00 00 00 00 
    a3f8:	66 66 2e 0f 1f 84 00 	data16 cs nopw 0x0(%rax,%rax,1)
    a3ff:	00 00 00 00 
    a403:	66 66 2e 0f 1f 84 00 	data16 cs nopw 0x0(%rax,%rax,1)
    a40a:	00 00 00 00 
    a40e:	66 66 2e 0f 1f 84 00 	data16 cs nopw 0x0(%rax,%rax,1)
    a415:	00 00 00 00 
    a419:	66 66 2e 0f 1f 84 00 	data16 cs nopw 0x0(%rax,%rax,1)
    a420:	00 00 00 00 
    a424:	66 66 2e 0f 1f 84 00 	data16 cs nopw 0x0(%rax,%rax,1)
    a42b:	00 00 00 00 
    a42f:	66 66 2e 0f 1f 84 00 	data16 cs nopw 0x0(%rax,%rax,1)
    a436:	00 00 00 00 
    a43a:	66 66 2e 0f 1f 84 00 	data16 cs nopw 0x0(%rax,%rax,1)
    a441:	00 00 00 00 
    a445:	66 66 2e 0f 1f 84 00 	data16 cs nopw 0x0(%rax,%rax,1)
    a44c:	00 00 00 00 
    a450:	66 66 2e 0f 1f 84 00 	data16 cs nopw 0x0(%rax,%rax,1)
    a457:	00 00 00 00 
    a45b:	66 66 2e 0f 1f 84 00 	data16 cs nopw 0x0(%rax,%rax,1)
    a462:	00 00 00 00 
    a466:	66 66 2e 0f 1f 84 00 	data16 cs nopw 0x0(%rax,%rax,1)
    a46d:	00 00 00 00 
    a471:	66 66 2e 0f 1f 84 00 	data16 cs nopw 0x0(%rax,%rax,1)
    a478:	00 00 00 00 
    a47c:	66 66 2e 0f 1f 84 00 	data16 cs nopw 0x0(%rax,%rax,1)
    a483:	00 00 00 00 
    a487:	66 66 2e 0f 1f 84 00 	data16 cs nopw 0x0(%rax,%rax,1)
    a48e:	00 00 00 00 
    a492:	66 66 2e 0f 1f 84 00 	data16 cs nopw 0x0(%rax,%rax,1)
    a499:	00 00 00 00 
    a49d:	66 66 2e 0f 1f 84 00 	data16 cs nopw 0x0(%rax,%rax,1)
    a4a4:	00 00 00 00 
    a4a8:	66 66 2e 0f 1f 84 00 	data16 cs nopw 0x0(%rax,%rax,1)
    a4af:	00 00 00 00 
    a4b3:	66 66 2e 0f 1f 84 00 	data16 cs nopw 0x0(%rax,%rax,1)
    a4ba:	00 00 00 00 
    a4be:	66 66 2e 0f 1f 84 00 	data16 cs nopw 0x0(%rax,%rax,1)
    a4c5:	00 00 00 00 
    a4c9:	66 66 2e 0f 1f 84 00 	data16 cs nopw 0x0(%rax,%rax,1)
    a4d0:	00 00 00 00 
    a4d4:	66 66 2e 0f 1f 84 00 	data16 cs nopw 0x0(%rax,%rax,1)
    a4db:	00 00 00 00 
    a4df:	66 66 2e 0f 1f 84 00 	data16 cs nopw 0x0(%rax,%rax,1)
    a4e6:	00 00 00 00 
    a4ea:	66 66 2e 0f 1f 84 00 	data16 cs nopw 0x0(%rax,%rax,1)
    a4f1:	00 00 00 00 
    a4f5:	66 66 2e 0f 1f 84 00 	data16 cs nopw 0x0(%rax,%rax,1)
    a4fc:	00 00 00 00 
    a500:	66 66 2e 0f 1f 84 00 	data16 cs nopw 0x0(%rax,%rax,1)
    a507:	00 00 00 00 
    a50b:	66 66 2e 0f 1f 84 00 	data16 cs nopw 0x0(%rax,%rax,1)
    a512:	00 00 00 00 
    a516:	66 66 2e 0f 1f 84 00 	data16 cs nopw 0x0(%rax,%rax,1)
    a51d:	00 00 00 00 
    a521:	66 66 2e 0f 1f 84 00 	data16 cs nopw 0x0(%rax,%rax,1)
    a528:	00 00 00 00 
    a52c:	66 66 2e 0f 1f 84 00 	data16 cs nopw 0x0(%rax,%rax,1)
    a533:	00 00 00 00 
    a537:	66 66 2e 0f 1f 84 00 	data16 cs nopw 0x0(%rax,%rax,1)
    a53e:	00 00 00 00 
    a542:	66 66 2e 0f 1f 84 00 	data16 cs nopw 0x0(%rax,%rax,1)
    a549:	00 00 00 00 
    a54d:	66 66 2e 0f 1f 84 00 	data16 cs nopw 0x0(%rax,%rax,1)
    a554:	00 00 00 00 
    a558:	66 66 2e 0f 1f 84 00 	data16 cs nopw 0x0(%rax,%rax,1)
    a55f:	00 00 00 00 
    a563:	66 66 2e 0f 1f 84 00 	data16 cs nopw 0x0(%rax,%rax,1)
    a56a:	00 00 00 00 
    a56e:	66 66 2e 0f 1f 84 00 	data16 cs nopw 0x0(%rax,%rax,1)
    a575:	00 00 00 00 
    a579:	66 66 2e 0f 1f 84 00 	data16 cs nopw 0x0(%rax,%rax,1)
    a580:	00 00 00 00 
    a584:	66 66 2e 0f 1f 84 00 	data16 cs nopw 0x0(%rax,%rax,1)
    a58b:	00 00 00 00 
    a58f:	66 66 2e 0f 1f 84 00 	data16 cs nopw 0x0(%rax,%rax,1)
    a596:	00 00 00 00 
    a59a:	66 66 2e 0f 1f 84 00 	data16 cs nopw 0x0(%rax,%rax,1)
    a5a1:	00 00 00 00 
    a5a5:	66 66 2e 0f 1f 84 00 	data16 cs nopw 0x0(%rax,%rax,1)
    a5ac:	00 00 00 00 
    a5b0:	66 66 2e 0f 1f 84 00 	data16 cs nopw 0x0(%rax,%rax,1)
    a5b7:	00 00 00 00 
    a5bb:	66 66 2e 0f 1f 84 00 	data16 cs nopw 0x0(%rax,%rax,1)
    a5c2:	00 00 00 00 
    a5c6:	66 66 2e 0f 1f 84 00 	data16 cs nopw 0x0(%rax,%rax,1)
    a5cd:	00 00 00 00 
    a5d1:	66 66 2e 0f 1f 84 00 	data16 cs nopw 0x0(%rax,%rax,1)
    a5d8:	00 00 00 00 
    a5dc:	66 66 2e 0f 1f 84 00 	data16 cs nopw 0x0(%rax,%rax,1)
    a5e3:	00 00 00 00 
    a5e7:	66 66 2e 0f 1f 84 00 	data16 cs nopw 0x0(%rax,%rax,1)
    a5ee:	00 00 00 00 
    a5f2:	66 66 2e 0f 1f 84 00 	data16 cs nopw 0x0(%rax,%rax,1)
    a5f9:	00 00 00 00 
    a5fd:	66 66 2e 0f 1f 84 00 	data16 cs nopw 0x0(%rax,%rax,1)
    a604:	00 00 00 00 
    a608:	66 66 2e 0f 1f 84 00 	data16 cs nopw 0x0(%rax,%rax,1)
    a60f:	00 00 00 00 
    a613:	66 66 2e 0f 1f 84 00 	data16 cs nopw 0x0(%rax,%rax,1)
    a61a:	00 00 00 00 
    a61e:	66 66 2e 0f 1f 84 00 	data16 cs nopw 0x0(%rax,%rax,1)
    a625:	00 00 00 00 
    a629:	66 66 2e 0f 1f 84 00 	data16 cs nopw 0x0(%rax,%rax,1)
    a630:	00 00 00 00 
    a634:	66 66 2e 0f 1f 84 00 	data16 cs nopw 0x0(%rax,%rax,1)
    a63b:	00 00 00 00 
    a63f:	66 66 2e 0f 1f 84 00 	data16 cs nopw 0x0(%rax,%rax,1)
    a646:	00 00 00 00 
    a64a:	66 66 2e 0f 1f 84 00 	data16 cs nopw 0x0(%rax,%rax,1)
    a651:	00 00 00 00 
    a655:	66 66 2e 0f 1f 84 00 	data16 cs nopw 0x0(%rax,%rax,1)
    a65c:	00 00 00 00 
    a660:	66 66 2e 0f 1f 84 00 	data16 cs nopw 0x0(%rax,%rax,1)
    a667:	00 00 00 00 
    a66b:	66 66 2e 0f 1f 84 00 	data16 cs nopw 0x0(%rax,%rax,1)
    a672:	00 00 00 00 
    a676:	66 66 2e 0f 1f 84 00 	data16 cs nopw 0x0(%rax,%rax,1)
    a67d:	00 00 00 00 
    a681:	66 66 2e 0f 1f 84 00 	data16 cs nopw 0x0(%rax,%rax,1)
    a688:	00 00 00 00 
    a68c:	66 66 2e 0f 1f 84 00 	data16 cs nopw 0x0(%rax,%rax,1)
    a693:	00 00 00 00 
    a697:	66 66 2e 0f 1f 84 00 	data16 cs nopw 0x0(%rax,%rax,1)
    a69e:	00 00 00 00 
    a6a2:	66 66 2e 0f 1f 84 00 	data16 cs nopw 0x0(%rax,%rax,1)
    a6a9:	00 00 00 00 
    a6ad:	66 66 2e 0f 1f 84 00 	data16 cs nopw 0x0(%rax,%rax,1)
    a6b4:	00 00 00 00 
    a6b8:	66 66 2e 0f 1f 84 00 	data16 cs nopw 0x0(%rax,%rax,1)
    a6bf:	00 00 00 00 
    a6c3:	66 66 2e 0f 1f 84 00 	data16 cs nopw 0x0(%rax,%rax,1)
    a6ca:	00 00 00 00 
    a6ce:	66 66 2e 0f 1f 84 00 	data16 cs nopw 0x0(%rax,%rax,1)
    a6d5:	00 00 00 00 
    a6d9:	66 66 2e 0f 1f 84 00 	data16 cs nopw 0x0(%rax,%rax,1)
    a6e0:	00 00 00 00 
    a6e4:	66 66 2e 0f 1f 84 00 	data16 cs nopw 0x0(%rax,%rax,1)
    a6eb:	00 00 00 00 
    a6ef:	66 66 2e 0f 1f 84 00 	data16 cs nopw 0x0(%rax,%rax,1)
    a6f6:	00 00 00 00 
    a6fa:	66 66 2e 0f 1f 84 00 	data16 cs nopw 0x0(%rax,%rax,1)
    a701:	00 00 00 00 
    a705:	66 66 2e 0f 1f 84 00 	data16 cs nopw 0x0(%rax,%rax,1)
    a70c:	00 00 00 00 
    a710:	66 66 2e 0f 1f 84 00 	data16 cs nopw 0x0(%rax,%rax,1)
    a717:	00 00 00 00 
    a71b:	66 66 2e 0f 1f 84 00 	data16 cs nopw 0x0(%rax,%rax,1)
    a722:	00 00 00 00 
    a726:	66 66 2e 0f 1f 84 00 	data16 cs nopw 0x0(%rax,%rax,1)
    a72d:	00 00 00 00 
    a731:	66 66 2e 0f 1f 84 00 	data16 cs nopw 0x0(%rax,%rax,1)
    a738:	00 00 00 00 
    a73c:	66 66 2e 0f 1f 84 00 	data16 cs nopw 0x0(%rax,%rax,1)
    a743:	00 00 00 00 
    a747:	66 66 2e 0f 1f 84 00 	data16 cs nopw 0x0(%rax,%rax,1)
    a74e:	00 00 00 00 
    a752:	66 66 2e 0f 1f 84 00 	data16 cs nopw 0x0(%rax,%rax,1)
    a759:	00 00 00 00 
    a75d:	66 66 2e 0f 1f 84 00 	data16 cs nopw 0x0(%rax,%rax,1)
    a764:	00 00 00 00 
    a768:	66 66 2e 0f 1f 84 00 	data16 cs nopw 0x0(%rax,%rax,1)
    a76f:	00 00 00 00 
    a773:	66 66 2e 0f 1f 84 00 	data16 cs nopw 0x0(%rax,%rax,1)
    a77a:	00 00 00 00 
    a77e:	66 66 2e 0f 1f 84 00 	data16 cs nopw 0x0(%rax,%rax,1)
    a785:	00 00 00 00 
    a789:	66 66 2e 0f 1f 84 00 	data16 cs nopw 0x0(%rax,%rax,1)
    a790:	00 00 00 00 
    a794:	66 66 2e 0f 1f 84 00 	data16 cs nopw 0x0(%rax,%rax,1)
    a79b:	00 00 00 00 
    a79f:	66 66 2e 0f 1f 84 00 	data16 cs nopw 0x0(%rax,%rax,1)
    a7a6:	00 00 00 00 
    a7aa:	66 66 2e 0f 1f 84 00 	data16 cs nopw 0x0(%rax,%rax,1)
    a7b1:	00 00 00 00 
    a7b5:	66 66 2e 0f 1f 84 00 	data16 cs nopw 0x0(%rax,%rax,1)
    a7bc:	00 00 00 00 
    a7c0:	66 66 2e 0f 1f 84 00 	data16 cs nopw 0x0(%rax,%rax,1)
    a7c7:	00 00 00 00 
    a7cb:	66 66 2e 0f 1f 84 00 	data16 cs nopw 0x0(%rax,%rax,1)
    a7d2:	00 00 00 00 
    a7d6:	66 66 2e 0f 1f 84 00 	data16 cs nopw 0x0(%rax,%rax,1)
    a7dd:	00 00 00 00 
    a7e1:	66 66 2e 0f 1f 84 00 	data16 cs nopw 0x0(%rax,%rax,1)
    a7e8:	00 00 00 00 
    a7ec:	66 66 2e 0f 1f 84 00 	data16 cs nopw 0x0(%rax,%rax,1)
    a7f3:	00 00 00 00 
    a7f7:	66 66 2e 0f 1f 84 00 	data16 cs nopw 0x0(%rax,%rax,1)
    a7fe:	00 00 00 00 
    a802:	66 66 2e 0f 1f 84 00 	data16 cs nopw 0x0(%rax,%rax,1)
    a809:	00 00 00 00 
    a80d:	66 66 2e 0f 1f 84 00 	data16 cs nopw 0x0(%rax,%rax,1)
    a814:	00 00 00 00 
    a818:	66 66 2e 0f 1f 84 00 	data16 cs nopw 0x0(%rax,%rax,1)
    a81f:	00 00 00 00 
    a823:	66 66 2e 0f 1f 84 00 	data16 cs nopw 0x0(%rax,%rax,1)
    a82a:	00 00 00 00 
    a82e:	66 66 2e 0f 1f 84 00 	data16 cs nopw 0x0(%rax,%rax,1)
    a835:	00 00 00 00 
    a839:	66 66 2e 0f 1f 84 00 	data16 cs nopw 0x0(%rax,%rax,1)
    a840:	00 00 00 00 
    a844:	66 66 2e 0f 1f 84 00 	data16 cs nopw 0x0(%rax,%rax,1)
    a84b:	00 00 00 00 
    a84f:	66 66 2e 0f 1f 84 00 	data16 cs nopw 0x0(%rax,%rax,1)
    a856:	00 00 00 00 
    a85a:	66 66 2e 0f 1f 84 00 	data16 cs nopw 0x0(%rax,%rax,1)
    a861:	00 00 00 00 
    a865:	66 66 2e 0f 1f 84 00 	data16 cs nopw 0x0(%rax,%rax,1)
    a86c:	00 00 00 00 
    a870:	66 66 2e 0f 1f 84 00 	data16 cs nopw 0x0(%rax,%rax,1)
    a877:	00 00 00 00 
    a87b:	66 66 2e 0f 1f 84 00 	data16 cs nopw 0x0(%rax,%rax,1)
    a882:	00 00 00 00 
    a886:	66 66 2e 0f 1f 84 00 	data16 cs nopw 0x0(%rax,%rax,1)
    a88d:	00 00 00 00 
    a891:	66 66 2e 0f 1f 84 00 	data16 cs nopw 0x0(%rax,%rax,1)
    a898:	00 00 00 00 
    a89c:	66 66 2e 0f 1f 84 00 	data16 cs nopw 0x0(%rax,%rax,1)
    a8a3:	00 00 00 00 
    a8a7:	66 66 2e 0f 1f 84 00 	data16 cs nopw 0x0(%rax,%rax,1)
    a8ae:	00 00 00 00 
    a8b2:	66 66 2e 0f 1f 84 00 	data16 cs nopw 0x0(%rax,%rax,1)
    a8b9:	00 00 00 00 
    a8bd:	66 66 2e 0f 1f 84 00 	data16 cs nopw 0x0(%rax,%rax,1)
    a8c4:	00 00 00 00 
    a8c8:	66 66 2e 0f 1f 84 00 	data16 cs nopw 0x0(%rax,%rax,1)
    a8cf:	00 00 00 00 
    a8d3:	66 66 2e 0f 1f 84 00 	data16 cs nopw 0x0(%rax,%rax,1)
    a8da:	00 00 00 00 
    a8de:	66 66 2e 0f 1f 84 00 	data16 cs nopw 0x0(%rax,%rax,1)
    a8e5:	00 00 00 00 
    a8e9:	66 66 2e 0f 1f 84 00 	data16 cs nopw 0x0(%rax,%rax,1)
    a8f0:	00 00 00 00 
    a8f4:	66 66 2e 0f 1f 84 00 	data16 cs nopw 0x0(%rax,%rax,1)
    a8fb:	00 00 00 00 
    a8ff:	66 66 2e 0f 1f 84 00 	data16 cs nopw 0x0(%rax,%rax,1)
    a906:	00 00 00 00 
    a90a:	66 66 2e 0f 1f 84 00 	data16 cs nopw 0x0(%rax,%rax,1)
    a911:	00 00 00 00 
    a915:	66 66 2e 0f 1f 84 00 	data16 cs nopw 0x0(%rax,%rax,1)
    a91c:	00 00 00 00 
    a920:	66 66 2e 0f 1f 84 00 	data16 cs nopw 0x0(%rax,%rax,1)
    a927:	00 00 00 00 
    a92b:	66 66 2e 0f 1f 84 00 	data16 cs nopw 0x0(%rax,%rax,1)
    a932:	00 00 00 00 
    a936:	66 66 2e 0f 1f 84 00 	data16 cs nopw 0x0(%rax,%rax,1)
    a93d:	00 00 00 00 
    a941:	66 66 2e 0f 1f 84 00 	data16 cs nopw 0x0(%rax,%rax,1)
    a948:	00 00 00 00 
    a94c:	66 66 2e 0f 1f 84 00 	data16 cs nopw 0x0(%rax,%rax,1)
    a953:	00 00 00 00 
    a957:	66 66 2e 0f 1f 84 00 	data16 cs nopw 0x0(%rax,%rax,1)
    a95e:	00 00 00 00 
    a962:	66 66 2e 0f 1f 84 00 	data16 cs nopw 0x0(%rax,%rax,1)
    a969:	00 00 00 00 
    a96d:	66 66 2e 0f 1f 84 00 	data16 cs nopw 0x0(%rax,%rax,1)
    a974:	00 00 00 00 
    a978:	66 66 2e 0f 1f 84 00 	data16 cs nopw 0x0(%rax,%rax,1)
    a97f:	00 00 00 00 
    a983:	66 66 2e 0f 1f 84 00 	data16 cs nopw 0x0(%rax,%rax,1)
    a98a:	00 00 00 00 
    a98e:	66 66 2e 0f 1f 84 00 	data16 cs nopw 0x0(%rax,%rax,1)
    a995:	00 00 00 00 
    a999:	66 66 2e 0f 1f 84 00 	data16 cs nopw 0x0(%rax,%rax,1)
    a9a0:	00 00 00 00 
    a9a4:	66 66 2e 0f 1f 84 00 	data16 cs nopw 0x0(%rax,%rax,1)
    a9ab:	00 00 00 00 
    a9af:	66 66 2e 0f 1f 84 00 	data16 cs nopw 0x0(%rax,%rax,1)
    a9b6:	00 00 00 00 
    a9ba:	66 66 2e 0f 1f 84 00 	data16 cs nopw 0x0(%rax,%rax,1)
    a9c1:	00 00 00 00 
    a9c5:	66 66 2e 0f 1f 84 00 	data16 cs nopw 0x0(%rax,%rax,1)
    a9cc:	00 00 00 00 
    a9d0:	66 66 2e 0f 1f 84 00 	data16 cs nopw 0x0(%rax,%rax,1)
    a9d7:	00 00 00 00 
    a9db:	66 66 2e 0f 1f 84 00 	data16 cs nopw 0x0(%rax,%rax,1)
    a9e2:	00 00 00 00 
    a9e6:	66 66 2e 0f 1f 84 00 	data16 cs nopw 0x0(%rax,%rax,1)
    a9ed:	00 00 00 00 
    a9f1:	66 66 2e 0f 1f 84 00 	data16 cs nopw 0x0(%rax,%rax,1)
    a9f8:	00 00 00 00 
    a9fc:	66 66 2e 0f 1f 84 00 	data16 cs nopw 0x0(%rax,%rax,1)
    aa03:	00 00 00 00 
    aa07:	66 66 2e 0f 1f 84 00 	data16 cs nopw 0x0(%rax,%rax,1)
    aa0e:	00 00 00 00 
    aa12:	66 66 2e 0f 1f 84 00 	data16 cs nopw 0x0(%rax,%rax,1)
    aa19:	00 00 00 00 
    aa1d:	66 66 2e 0f 1f 84 00 	data16 cs nopw 0x0(%rax,%rax,1)
    aa24:	00 00 00 00 
    aa28:	66 66 2e 0f 1f 84 00 	data16 cs nopw 0x0(%rax,%rax,1)
    aa2f:	00 00 00 00 
    aa33:	66 66 2e 0f 1f 84 00 	data16 cs nopw 0x0(%rax,%rax,1)
    aa3a:	00 00 00 00 
    aa3e:	66 66 2e 0f 1f 84 00 	data16 cs nopw 0x0(%rax,%rax,1)
    aa45:	00 00 00 00 
    aa49:	66 66 2e 0f 1f 84 00 	data16 cs nopw 0x0(%rax,%rax,1)
    aa50:	00 00 00 00 
    aa54:	66 66 2e 0f 1f 84 00 	data16 cs nopw 0x0(%rax,%rax,1)
    aa5b:	00 00 00 00 
    aa5f:	66 66 2e 0f 1f 84 00 	data16 cs nopw 0x0(%rax,%rax,1)
    aa66:	00 00 00 00 
    aa6a:	66 66 2e 0f 1f 84 00 	data16 cs nopw 0x0(%rax,%rax,1)
    aa71:	00 00 00 00 
    aa75:	66 66 2e 0f 1f 84 00 	data16 cs nopw 0x0(%rax,%rax,1)
    aa7c:	00 00 00 00 
    aa80:	66 66 2e 0f 1f 84 00 	data16 cs nopw 0x0(%rax,%rax,1)
    aa87:	00 00 00 00 
    aa8b:	66 66 2e 0f 1f 84 00 	data16 cs nopw 0x0(%rax,%rax,1)
    aa92:	00 00 00 00 
    aa96:	66 66 2e 0f 1f 84 00 	data16 cs nopw 0x0(%rax,%rax,1)
    aa9d:	00 00 00 00 
    aaa1:	66 66 2e 0f 1f 84 00 	data16 cs nopw 0x0(%rax,%rax,1)
    aaa8:	00 00 00 00 
    aaac:	66 66 2e 0f 1f 84 00 	data16 cs nopw 0x0(%rax,%rax,1)
    aab3:	00 00 00 00 
    aab7:	66 66 2e 0f 1f 84 00 	data16 cs nopw 0x0(%rax,%rax,1)
    aabe:	00 00 00 00 
    aac2:	66 66 2e 0f 1f 84 00 	data16 cs nopw 0x0(%rax,%rax,1)
    aac9:	00 00 00 00 
    aacd:	66 66 2e 0f 1f 84 00 	data16 cs nopw 0x0(%rax,%rax,1)
    aad4:	00 00 00 00 
    aad8:	66 66 2e 0f 1f 84 00 	data16 cs nopw 0x0(%rax,%rax,1)
    aadf:	00 00 00 00 
    aae3:	66 66 2e 0f 1f 84 00 	data16 cs nopw 0x0(%rax,%rax,1)
    aaea:	00 00 00 00 
    aaee:	66 66 2e 0f 1f 84 00 	data16 cs nopw 0x0(%rax,%rax,1)
    aaf5:	00 00 00 00 
    aaf9:	66 66 2e 0f 1f 84 00 	data16 cs nopw 0x0(%rax,%rax,1)
    ab00:	00 00 00 00 
    ab04:	66 66 2e 0f 1f 84 00 	data16 cs nopw 0x0(%rax,%rax,1)
    ab0b:	00 00 00 00 
    ab0f:	66 66 2e 0f 1f 84 00 	data16 cs nopw 0x0(%rax,%rax,1)
    ab16:	00 00 00 00 
    ab1a:	66 66 2e 0f 1f 84 00 	data16 cs nopw 0x0(%rax,%rax,1)
    ab21:	00 00 00 00 
    ab25:	66 66 2e 0f 1f 84 00 	data16 cs nopw 0x0(%rax,%rax,1)
    ab2c:	00 00 00 00 
    ab30:	66 66 2e 0f 1f 84 00 	data16 cs nopw 0x0(%rax,%rax,1)
    ab37:	00 00 00 00 
    ab3b:	66 66 2e 0f 1f 84 00 	data16 cs nopw 0x0(%rax,%rax,1)
    ab42:	00 00 00 00 
    ab46:	66 66 2e 0f 1f 84 00 	data16 cs nopw 0x0(%rax,%rax,1)
    ab4d:	00 00 00 00 
    ab51:	66 66 2e 0f 1f 84 00 	data16 cs nopw 0x0(%rax,%rax,1)
    ab58:	00 00 00 00 
    ab5c:	66 66 2e 0f 1f 84 00 	data16 cs nopw 0x0(%rax,%rax,1)
    ab63:	00 00 00 00 
    ab67:	66 66 2e 0f 1f 84 00 	data16 cs nopw 0x0(%rax,%rax,1)
    ab6e:	00 00 00 00 
    ab72:	66 66 2e 0f 1f 84 00 	data16 cs nopw 0x0(%rax,%rax,1)
    ab79:	00 00 00 00 
    ab7d:	66 66 2e 0f 1f 84 00 	data16 cs nopw 0x0(%rax,%rax,1)
    ab84:	00 00 00 00 
    ab88:	66 66 2e 0f 1f 84 00 	data16 cs nopw 0x0(%rax,%rax,1)
    ab8f:	00 00 00 00 
    ab93:	66 66 2e 0f 1f 84 00 	data16 cs nopw 0x0(%rax,%rax,1)
    ab9a:	00 00 00 00 
    ab9e:	66 66 2e 0f 1f 84 00 	data16 cs nopw 0x0(%rax,%rax,1)
    aba5:	00 00 00 00 
    aba9:	66 66 2e 0f 1f 84 00 	data16 cs nopw 0x0(%rax,%rax,1)
    abb0:	00 00 00 00 
    abb4:	66 66 2e 0f 1f 84 00 	data16 cs nopw 0x0(%rax,%rax,1)
    abbb:	00 00 00 00 
    abbf:	66 66 2e 0f 1f 84 00 	data16 cs nopw 0x0(%rax,%rax,1)
    abc6:	00 00 00 00 
    abca:	66 66 2e 0f 1f 84 00 	data16 cs nopw 0x0(%rax,%rax,1)
    abd1:	00 00 00 00 
    abd5:	66 66 2e 0f 1f 84 00 	data16 cs nopw 0x0(%rax,%rax,1)
    abdc:	00 00 00 00 
    abe0:	66 66 2e 0f 1f 84 00 	data16 cs nopw 0x0(%rax,%rax,1)
    abe7:	00 00 00 00 
    abeb:	66 66 2e 0f 1f 84 00 	data16 cs nopw 0x0(%rax,%rax,1)
    abf2:	00 00 00 00 
    abf6:	66 66 2e 0f 1f 84 00 	data16 cs nopw 0x0(%rax,%rax,1)
    abfd:	00 00 00 00 
    ac01:	66 66 2e 0f 1f 84 00 	data16 cs nopw 0x0(%rax,%rax,1)
    ac08:	00 00 00 00 
    ac0c:	66 66 2e 0f 1f 84 00 	data16 cs nopw 0x0(%rax,%rax,1)
    ac13:	00 00 00 00 
    ac17:	66 66 2e 0f 1f 84 00 	data16 cs nopw 0x0(%rax,%rax,1)
    ac1e:	00 00 00 00 
    ac22:	66 66 2e 0f 1f 84 00 	data16 cs nopw 0x0(%rax,%rax,1)
    ac29:	00 00 00 00 
    ac2d:	66 66 2e 0f 1f 84 00 	data16 cs nopw 0x0(%rax,%rax,1)
    ac34:	00 00 00 00 
    ac38:	66 66 2e 0f 1f 84 00 	data16 cs nopw 0x0(%rax,%rax,1)
    ac3f:	00 00 00 00 
    ac43:	66 66 2e 0f 1f 84 00 	data16 cs nopw 0x0(%rax,%rax,1)
    ac4a:	00 00 00 00 
    ac4e:	66 66 2e 0f 1f 84 00 	data16 cs nopw 0x0(%rax,%rax,1)
    ac55:	00 00 00 00 
    ac59:	66 66 2e 0f 1f 84 00 	data16 cs nopw 0x0(%rax,%rax,1)
    ac60:	00 00 00 00 
    ac64:	66 66 2e 0f 1f 84 00 	data16 cs nopw 0x0(%rax,%rax,1)
    ac6b:	00 00 00 00 
    ac6f:	66 66 2e 0f 1f 84 00 	data16 cs nopw 0x0(%rax,%rax,1)
    ac76:	00 00 00 00 
    ac7a:	66 66 2e 0f 1f 84 00 	data16 cs nopw 0x0(%rax,%rax,1)
    ac81:	00 00 00 00 
    ac85:	66 66 2e 0f 1f 84 00 	data16 cs nopw 0x0(%rax,%rax,1)
    ac8c:	00 00 00 00 
    ac90:	66 66 2e 0f 1f 84 00 	data16 cs nopw 0x0(%rax,%rax,1)
    ac97:	00 00 00 00 
    ac9b:	66 66 2e 0f 1f 84 00 	data16 cs nopw 0x0(%rax,%rax,1)
    aca2:	00 00 00 00 
    aca6:	66 66 2e 0f 1f 84 00 	data16 cs nopw 0x0(%rax,%rax,1)
    acad:	00 00 00 00 
    acb1:	66 66 2e 0f 1f 84 00 	data16 cs nopw 0x0(%rax,%rax,1)
    acb8:	00 00 00 00 
    acbc:	66 66 2e 0f 1f 84 00 	data16 cs nopw 0x0(%rax,%rax,1)
    acc3:	00 00 00 00 
    acc7:	66 66 2e 0f 1f 84 00 	data16 cs nopw 0x0(%rax,%rax,1)
    acce:	00 00 00 00 
    acd2:	66 66 2e 0f 1f 84 00 	data16 cs nopw 0x0(%rax,%rax,1)
    acd9:	00 00 00 00 
    acdd:	66 66 2e 0f 1f 84 00 	data16 cs nopw 0x0(%rax,%rax,1)
    ace4:	00 00 00 00 
    ace8:	66 66 2e 0f 1f 84 00 	data16 cs nopw 0x0(%rax,%rax,1)
    acef:	00 00 00 00 
    acf3:	66 66 2e 0f 1f 84 00 	data16 cs nopw 0x0(%rax,%rax,1)
    acfa:	00 00 00 00 
    acfe:	66 66 2e 0f 1f 84 00 	data16 cs nopw 0x0(%rax,%rax,1)
    ad05:	00 00 00 00 
    ad09:	66 66 2e 0f 1f 84 00 	data16 cs nopw 0x0(%rax,%rax,1)
    ad10:	00 00 00 00 
    ad14:	66 66 2e 0f 1f 84 00 	data16 cs nopw 0x0(%rax,%rax,1)
    ad1b:	00 00 00 00 
    ad1f:	66 66 2e 0f 1f 84 00 	data16 cs nopw 0x0(%rax,%rax,1)
    ad26:	00 00 00 00 
    ad2a:	66 66 2e 0f 1f 84 00 	data16 cs nopw 0x0(%rax,%rax,1)
    ad31:	00 00 00 00 
    ad35:	66 66 2e 0f 1f 84 00 	data16 cs nopw 0x0(%rax,%rax,1)
    ad3c:	00 00 00 00 
    ad40:	66 66 2e 0f 1f 84 00 	data16 cs nopw 0x0(%rax,%rax,1)
    ad47:	00 00 00 00 
    ad4b:	66 66 2e 0f 1f 84 00 	data16 cs nopw 0x0(%rax,%rax,1)
    ad52:	00 00 00 00 
    ad56:	66 66 2e 0f 1f 84 00 	data16 cs nopw 0x0(%rax,%rax,1)
    ad5d:	00 00 00 00 
    ad61:	66 66 2e 0f 1f 84 00 	data16 cs nopw 0x0(%rax,%rax,1)
    ad68:	00 00 00 00 
    ad6c:	66 66 2e 0f 1f 84 00 	data16 cs nopw 0x0(%rax,%rax,1)
    ad73:	00 00 00 00 
    ad77:	66 66 2e 0f 1f 84 00 	data16 cs nopw 0x0(%rax,%rax,1)
    ad7e:	00 00 00 00 
    ad82:	66 66 2e 0f 1f 84 00 	data16 cs nopw 0x0(%rax,%rax,1)
    ad89:	00 00 00 00 
    ad8d:	66 66 2e 0f 1f 84 00 	data16 cs nopw 0x0(%rax,%rax,1)
    ad94:	00 00 00 00 
    ad98:	66 66 2e 0f 1f 84 00 	data16 cs nopw 0x0(%rax,%rax,1)
    ad9f:	00 00 00 00 
    ada3:	66 66 2e 0f 1f 84 00 	data16 cs nopw 0x0(%rax,%rax,1)
    adaa:	00 00 00 00 
    adae:	66 66 2e 0f 1f 84 00 	data16 cs nopw 0x0(%rax,%rax,1)
    adb5:	00 00 00 00 
    adb9:	66 66 2e 0f 1f 84 00 	data16 cs nopw 0x0(%rax,%rax,1)
    adc0:	00 00 00 00 
    adc4:	66 66 2e 0f 1f 84 00 	data16 cs nopw 0x0(%rax,%rax,1)
    adcb:	00 00 00 00 
    adcf:	66 66 2e 0f 1f 84 00 	data16 cs nopw 0x0(%rax,%rax,1)
    add6:	00 00 00 00 
    adda:	66 66 2e 0f 1f 84 00 	data16 cs nopw 0x0(%rax,%rax,1)
    ade1:	00 00 00 00 
    ade5:	66 66 2e 0f 1f 84 00 	data16 cs nopw 0x0(%rax,%rax,1)
    adec:	00 00 00 00 
    adf0:	66 66 2e 0f 1f 84 00 	data16 cs nopw 0x0(%rax,%rax,1)
    adf7:	00 00 00 00 
    adfb:	66 66 2e 0f 1f 84 00 	data16 cs nopw 0x0(%rax,%rax,1)
    ae02:	00 00 00 00 
    ae06:	66 66 2e 0f 1f 84 00 	data16 cs nopw 0x0(%rax,%rax,1)
    ae0d:	00 00 00 00 
    ae11:	66 66 2e 0f 1f 84 00 	data16 cs nopw 0x0(%rax,%rax,1)
    ae18:	00 00 00 00 
    ae1c:	66 66 2e 0f 1f 84 00 	data16 cs nopw 0x0(%rax,%rax,1)
    ae23:	00 00 00 00 
    ae27:	66 66 2e 0f 1f 84 00 	data16 cs nopw 0x0(%rax,%rax,1)
    ae2e:	00 00 00 00 
    ae32:	66 66 2e 0f 1f 84 00 	data16 cs nopw 0x0(%rax,%rax,1)
    ae39:	00 00 00 00 
    ae3d:	66 66 2e 0f 1f 84 00 	data16 cs nopw 0x0(%rax,%rax,1)
    ae44:	00 00 00 00 
    ae48:	66 66 2e 0f 1f 84 00 	data16 cs nopw 0x0(%rax,%rax,1)
    ae4f:	00 00 00 00 
    ae53:	66 66 2e 0f 1f 84 00 	data16 cs nopw 0x0(%rax,%rax,1)
    ae5a:	00 00 00 00 
    ae5e:	66 66 2e 0f 1f 84 00 	data16 cs nopw 0x0(%rax,%rax,1)
    ae65:	00 00 00 00 
    ae69:	66 66 2e 0f 1f 84 00 	data16 cs nopw 0x0(%rax,%rax,1)
    ae70:	00 00 00 00 
    ae74:	66 66 2e 0f 1f 84 00 	data16 cs nopw 0x0(%rax,%rax,1)
    ae7b:	00 00 00 00 
    ae7f:	66 66 2e 0f 1f 84 00 	data16 cs nopw 0x0(%rax,%rax,1)
    ae86:	00 00 00 00 
    ae8a:	66 66 2e 0f 1f 84 00 	data16 cs nopw 0x0(%rax,%rax,1)
    ae91:	00 00 00 00 
    ae95:	66 66 2e 0f 1f 84 00 	data16 cs nopw 0x0(%rax,%rax,1)
    ae9c:	00 00 00 00 
    aea0:	66 66 2e 0f 1f 84 00 	data16 cs nopw 0x0(%rax,%rax,1)
    aea7:	00 00 00 00 
    aeab:	66 66 2e 0f 1f 84 00 	data16 cs nopw 0x0(%rax,%rax,1)
    aeb2:	00 00 00 00 
    aeb6:	66 66 2e 0f 1f 84 00 	data16 cs nopw 0x0(%rax,%rax,1)
    aebd:	00 00 00 00 
    aec1:	66 66 2e 0f 1f 84 00 	data16 cs nopw 0x0(%rax,%rax,1)
    aec8:	00 00 00 00 
    aecc:	66 66 2e 0f 1f 84 00 	data16 cs nopw 0x0(%rax,%rax,1)
    aed3:	00 00 00 00 
    aed7:	66 66 2e 0f 1f 84 00 	data16 cs nopw 0x0(%rax,%rax,1)
    aede:	00 00 00 00 
    aee2:	66 66 2e 0f 1f 84 00 	data16 cs nopw 0x0(%rax,%rax,1)
    aee9:	00 00 00 00 
    aeed:	66 66 2e 0f 1f 84 00 	data16 cs nopw 0x0(%rax,%rax,1)
    aef4:	00 00 00 00 
    aef8:	66 66 2e 0f 1f 84 00 	data16 cs nopw 0x0(%rax,%rax,1)
    aeff:	00 00 00 00 
    af03:	66 66 2e 0f 1f 84 00 	data16 cs nopw 0x0(%rax,%rax,1)
    af0a:	00 00 00 00 
    af0e:	66 66 2e 0f 1f 84 00 	data16 cs nopw 0x0(%rax,%rax,1)
    af15:	00 00 00 00 
    af19:	66 66 2e 0f 1f 84 00 	data16 cs nopw 0x0(%rax,%rax,1)
    af20:	00 00 00 00 
    af24:	66 66 2e 0f 1f 84 00 	data16 cs nopw 0x0(%rax,%rax,1)
    af2b:	00 00 00 00 
    af2f:	66 66 2e 0f 1f 84 00 	data16 cs nopw 0x0(%rax,%rax,1)
    af36:	00 00 00 00 
    af3a:	66 66 2e 0f 1f 84 00 	data16 cs nopw 0x0(%rax,%rax,1)
    af41:	00 00 00 00 
    af45:	66 66 2e 0f 1f 84 00 	data16 cs nopw 0x0(%rax,%rax,1)
    af4c:	00 00 00 00 
    af50:	66 66 2e 0f 1f 84 00 	data16 cs nopw 0x0(%rax,%rax,1)
    af57:	00 00 00 00 
    af5b:	66 66 2e 0f 1f 84 00 	data16 cs nopw 0x0(%rax,%rax,1)
    af62:	00 00 00 00 
    af66:	66 66 2e 0f 1f 84 00 	data16 cs nopw 0x0(%rax,%rax,1)
    af6d:	00 00 00 00 
    af71:	66 66 2e 0f 1f 84 00 	data16 cs nopw 0x0(%rax,%rax,1)
    af78:	00 00 00 00 
    af7c:	66 66 2e 0f 1f 84 00 	data16 cs nopw 0x0(%rax,%rax,1)
    af83:	00 00 00 00 
    af87:	66 66 2e 0f 1f 84 00 	data16 cs nopw 0x0(%rax,%rax,1)
    af8e:	00 00 00 00 
    af92:	66 66 2e 0f 1f 84 00 	data16 cs nopw 0x0(%rax,%rax,1)
    af99:	00 00 00 00 
    af9d:	66 66 2e 0f 1f 84 00 	data16 cs nopw 0x0(%rax,%rax,1)
    afa4:	00 00 00 00 
    afa8:	66 66 2e 0f 1f 84 00 	data16 cs nopw 0x0(%rax,%rax,1)
    afaf:	00 00 00 00 
    afb3:	66 66 2e 0f 1f 84 00 	data16 cs nopw 0x0(%rax,%rax,1)
    afba:	00 00 00 00 
    afbe:	66 66 2e 0f 1f 84 00 	data16 cs nopw 0x0(%rax,%rax,1)
    afc5:	00 00 00 00 
    afc9:	66 66 2e 0f 1f 84 00 	data16 cs nopw 0x0(%rax,%rax,1)
    afd0:	00 00 00 00 
    afd4:	66 66 2e 0f 1f 84 00 	data16 cs nopw 0x0(%rax,%rax,1)
    afdb:	00 00 00 00 
    afdf:	66 66 2e 0f 1f 84 00 	data16 cs nopw 0x0(%rax,%rax,1)
    afe6:	00 00 00 00 
    afea:	66 66 2e 0f 1f 84 00 	data16 cs nopw 0x0(%rax,%rax,1)
    aff1:	00 00 00 00 
    aff5:	66 66 2e 0f 1f 84 00 	data16 cs nopw 0x0(%rax,%rax,1)
    affc:	00 00 00 00 

000000000000b000 <pd>:
    b000:	83 00 00             	addl   $0x0,(%rax)
    b003:	00 00                	add    %al,(%rax)
    b005:	00 00                	add    %al,(%rax)
    b007:	00 0f                	add    %cl,(%rdi)
    b009:	1f                   	(bad)
    b00a:	84 00                	test   %al,(%rax)
    b00c:	00 00                	add    %al,(%rax)
	...

000000000000b010 <waitdisk>:
// =============================================================================

#if defined(__i386__) || defined(__x86_64__)
static inline unsigned char inb(ushort port) {
  unsigned char data;
  __asm__ volatile("inb %w1, %b0" : "=a"(data) : "Nd"(port) : "memory");
    b010:	ba f7 01 00 00       	mov    $0x1f7,%edx
    b015:	66 66 2e 0f 1f 84 00 	data16 cs nopw 0x0(%rax,%rax,1)
    b01c:	00 00 00 00 
    b020:	ec                   	in     (%dx),%al

void
waitdisk(void)
{
  // Wait for disk ready.
  while((inb(0x1F7) & 0xC0) != 0x40)
    b021:	83 e0 c0             	and    $0xffffffc0,%eax
    b024:	3c 40                	cmp    $0x40,%al
    b026:	75 f8                	jne    b020 <waitdisk+0x10>
    ;
}
    b028:	c3                   	ret
    b029:	0f 1f 80 00 00 00 00 	nopl   0x0(%rax)

000000000000b030 <readsect>:
    b030:	ba f7 01 00 00       	mov    $0x1f7,%edx
    b035:	ec                   	in     (%dx),%al
  while((inb(0x1F7) & 0xC0) != 0x40)
    b036:	83 e0 c0             	and    $0xffffffc0,%eax
    b039:	3c 40                	cmp    $0x40,%al
    b03b:	75 f3                	jne    b030 <readsect>
  uint data;
  __asm__ volatile("inl %w1, %0" : "=a"(data) : "Nd"(port) : "memory");
  return data;
}
static inline void outb(ushort port, unsigned char data) {
  __asm__ volatile("outb %b0, %w1" : : "a"(data), "Nd"(port) : "memory");
    b03d:	b8 01 00 00 00       	mov    $0x1,%eax
    b042:	ba f2 01 00 00       	mov    $0x1f2,%edx
    b047:	ee                   	out    %al,(%dx)
    b048:	ba f3 01 00 00       	mov    $0x1f3,%edx
    b04d:	89 f0                	mov    %esi,%eax
    b04f:	ee                   	out    %al,(%dx)
{
  // Issue command.
  waitdisk();
  outb(0x1F2, 1);   // count = 1
  outb(0x1F3, offset);
  outb(0x1F4, offset >> 8);
    b050:	89 f0                	mov    %esi,%eax
    b052:	ba f4 01 00 00       	mov    $0x1f4,%edx
    b057:	c1 e8 08             	shr    $0x8,%eax
    b05a:	ee                   	out    %al,(%dx)
  outb(0x1F5, offset >> 16);
    b05b:	89 f0                	mov    %esi,%eax
    b05d:	ba f5 01 00 00       	mov    $0x1f5,%edx
    b062:	c1 e8 10             	shr    $0x10,%eax
    b065:	ee                   	out    %al,(%dx)
  outb(0x1F6, (offset >> 24) | 0xE0);
    b066:	c1 ee 18             	shr    $0x18,%esi
    b069:	ba f6 01 00 00       	mov    $0x1f6,%edx
    b06e:	89 f0                	mov    %esi,%eax
    b070:	83 c8 e0             	or     $0xffffffe0,%eax
    b073:	ee                   	out    %al,(%dx)
    b074:	b8 20 00 00 00       	mov    $0x20,%eax
    b079:	ba f7 01 00 00       	mov    $0x1f7,%edx
    b07e:	ee                   	out    %al,(%dx)
  __asm__ volatile("inb %w1, %b0" : "=a"(data) : "Nd"(port) : "memory");
    b07f:	ba f7 01 00 00       	mov    $0x1f7,%edx
    b084:	90                   	nop
    b085:	66 66 2e 0f 1f 84 00 	data16 cs nopw 0x0(%rax,%rax,1)
    b08c:	00 00 00 00 
    b090:	ec                   	in     (%dx),%al
  while((inb(0x1F7) & 0xC0) != 0x40)
    b091:	83 e0 c0             	and    $0xffffffc0,%eax
    b094:	3c 40                	cmp    $0x40,%al
    b096:	75 f8                	jne    b090 <readsect+0x60>
// BULK DATA TRANSFER MODULE
// =============================================================================

static inline void insl(int port, void *addr, int cnt) {
#if defined(__i386__) || defined(__x86_64__)
  __asm__ volatile("cld\n\t"
    b098:	b9 80 00 00 00       	mov    $0x80,%ecx
    b09d:	ba f0 01 00 00       	mov    $0x1f0,%edx
    b0a2:	fc                   	cld
    b0a3:	f3 6d                	rep insl (%dx),(%rdi)
  outb(0x1F7, 0x20);  // cmd 0x20 - read sectors

  // Read data.
  waitdisk();
  insl(0x1F0, dst, SECTSIZE/4);
}
    b0a5:	c3                   	ret
    b0a6:	66 2e 0f 1f 84 00 00 	cs nopw 0x0(%rax,%rax,1)
    b0ad:	00 00 00 

000000000000b0b0 <bootmain>:
{
    b0b0:	55                   	push   %rbp

  // Round down to sector boundary.
  pa -= offset % SECTSIZE;

  // Translate from bytes to sectors; kernel starts at sector 1.
  offset = (offset / SECTSIZE) + 1;
    b0b1:	41 b9 01 00 00 00    	mov    $0x1,%r9d
  pa -= offset % SECTSIZE;
    b0b7:	41 b8 00 00 01 00    	mov    $0x10000,%r8d
{
    b0bd:	48 89 e5             	mov    %rsp,%rbp
    b0c0:	41 55                	push   %r13
    b0c2:	41 54                	push   %r12
    b0c4:	53                   	push   %rbx
    b0c5:	48 83 ec 08          	sub    $0x8,%rsp
    b0c9:	0f 1f 80 00 00 00 00 	nopl   0x0(%rax)

  // If this is too slow, we could read lots of sectors at a time.
  // We'd write more to memory than asked, but it doesn't matter --
  // we load in increasing order.
  for(; pa < epa; pa += SECTSIZE, offset++)
    readsect(pa, offset);
    b0d0:	44 89 ce             	mov    %r9d,%esi
    b0d3:	4c 89 c7             	mov    %r8,%rdi
  for(; pa < epa; pa += SECTSIZE, offset++)
    b0d6:	49 81 c0 00 02 00 00 	add    $0x200,%r8
    b0dd:	41 83 c1 01          	add    $0x1,%r9d
    readsect(pa, offset);
    b0e1:	e8 4a ff ff ff       	call   b030 <readsect>
  for(; pa < epa; pa += SECTSIZE, offset++)
    b0e6:	49 81 f8 00 10 01 00 	cmp    $0x11000,%r8
    b0ed:	75 e1                	jne    b0d0 <bootmain+0x20>
  if(elf->magic != ELF_MAGIC)
    b0ef:	81 3c 25 00 00 01 00 	cmpl   $0x464c457f,0x10000
    b0f6:	7f 45 4c 46 
    b0fa:	0f 85 b0 00 00 00    	jne    b1b0 <bootmain+0x100>
  ph = (struct proghdr*)((uint8_t*)elf + elf->phoff);
    b100:	44 8b 1c 25 1c 00 01 	mov    0x1001c,%r11d
    b107:	00 
  eph = ph + elf->phnum;
    b108:	44 0f b7 24 25 2c 00 	movzwl 0x1002c,%r12d
    b10f:	01 00 
  ph = (struct proghdr*)((uint8_t*)elf + elf->phoff);
    b111:	49 81 c3 00 00 01 00 	add    $0x10000,%r11
  eph = ph + elf->phnum;
    b118:	49 c1 e4 05          	shl    $0x5,%r12
    b11c:	4d 01 dc             	add    %r11,%r12
  for(; ph < eph; ph++){
    b11f:	4d 39 e3             	cmp    %r12,%r11
    b122:	73 79                	jae    b19d <bootmain+0xed>
    b124:	90                   	nop
    b125:	66 66 2e 0f 1f 84 00 	data16 cs nopw 0x0(%rax,%rax,1)
    b12c:	00 00 00 00 
    readseg(pa, ph->filesz, ph->off);
    b130:	45 8b 4b 04          	mov    0x4(%r11),%r9d
    pa = (uint8_t*)(uintptr_t)ph->paddr;
    b134:	41 8b 5b 0c          	mov    0xc(%r11),%ebx
    readseg(pa, ph->filesz, ph->off);
    b138:	45 8b 53 10          	mov    0x10(%r11),%r10d
  pa -= offset % SECTSIZE;
    b13c:	44 89 ca             	mov    %r9d,%edx
    b13f:	49 89 d8             	mov    %rbx,%r8
    b142:	81 e2 ff 01 00 00    	and    $0x1ff,%edx
    readseg(pa, ph->filesz, ph->off);
    b148:	4c 89 d0             	mov    %r10,%rax
  epa = pa + count;
    b14b:	49 01 da             	add    %rbx,%r10
  pa -= offset % SECTSIZE;
    b14e:	49 29 d0             	sub    %rdx,%r8
  for(; pa < epa; pa += SECTSIZE, offset++)
    b151:	4d 39 d0             	cmp    %r10,%r8
    b154:	73 29                	jae    b17f <bootmain+0xcf>
  offset = (offset / SECTSIZE) + 1;
    b156:	41 c1 e9 09          	shr    $0x9,%r9d
    b15a:	41 83 c1 01          	add    $0x1,%r9d
    b15e:	66 90                	xchg   %ax,%ax
    readsect(pa, offset);
    b160:	44 89 ce             	mov    %r9d,%esi
    b163:	4c 89 c7             	mov    %r8,%rdi
  for(; pa < epa; pa += SECTSIZE, offset++)
    b166:	49 81 c0 00 02 00 00 	add    $0x200,%r8
    b16d:	41 83 c1 01          	add    $0x1,%r9d
    readsect(pa, offset);
    b171:	e8 ba fe ff ff       	call   b030 <readsect>
  for(; pa < epa; pa += SECTSIZE, offset++)
    b176:	4d 39 d0             	cmp    %r10,%r8
    b179:	72 e5                	jb     b160 <bootmain+0xb0>
    if(ph->memsz > ph->filesz)
    b17b:	41 8b 43 10          	mov    0x10(%r11),%eax
    b17f:	41 8b 4b 14          	mov    0x14(%r11),%ecx
    b183:	39 c8                	cmp    %ecx,%eax
    b185:	73 0d                	jae    b194 <bootmain+0xe4>
      stosb(pa + ph->filesz, 0, ph->memsz - ph->filesz);
    b187:	89 c2                	mov    %eax,%edx
    b189:	29 c1                	sub    %eax,%ecx
// =============================================================================
// MEMORY OPERATIONS MODULE
// =============================================================================

static inline void stosb(void *addr, int data, int cnt) {
  __asm__ volatile("cld\n\t"
    b18b:	31 c0                	xor    %eax,%eax
    b18d:	48 8d 3c 13          	lea    (%rbx,%rdx,1),%rdi
    b191:	fc                   	cld
    b192:	f3 aa                	rep stos %al,(%rdi)
  for(; ph < eph; ph++){
    b194:	49 83 c3 20          	add    $0x20,%r11
    b198:	4d 39 e3             	cmp    %r12,%r11
    b19b:	72 93                	jb     b130 <bootmain+0x80>
  entry = (void(*)(void))(uintptr_t)(elf->entry);
    b19d:	8b 04 25 18 00 01 00 	mov    0x10018,%eax
}
    b1a4:	48 83 c4 08          	add    $0x8,%rsp
    b1a8:	5b                   	pop    %rbx
    b1a9:	41 5c                	pop    %r12
    b1ab:	41 5d                	pop    %r13
    b1ad:	5d                   	pop    %rbp
  entry();
    b1ae:	ff e0                	jmp    *%rax
}
    b1b0:	48 83 c4 08          	add    $0x8,%rsp
    b1b4:	5b                   	pop    %rbx
    b1b5:	41 5c                	pop    %r12
    b1b7:	41 5d                	pop    %r13
    b1b9:	5d                   	pop    %rbp
    b1ba:	c3                   	ret
    b1bb:	0f 1f 44 00 00       	nopl   0x0(%rax,%rax,1)

000000000000b1c0 <readseg>:
  pa -= offset % SECTSIZE;
    b1c0:	89 d0                	mov    %edx,%eax
  epa = pa + count;
    b1c2:	89 f6                	mov    %esi,%esi
  pa -= offset % SECTSIZE;
    b1c4:	25 ff 01 00 00       	and    $0x1ff,%eax
  epa = pa + count;
    b1c9:	4c 8d 14 37          	lea    (%rdi,%rsi,1),%r10
  pa -= offset % SECTSIZE;
    b1cd:	48 29 c7             	sub    %rax,%rdi
  for(; pa < epa; pa += SECTSIZE, offset++)
    b1d0:	4c 39 d7             	cmp    %r10,%rdi
    b1d3:	73 3b                	jae    b210 <readseg+0x50>
{
    b1d5:	55                   	push   %rbp
  offset = (offset / SECTSIZE) + 1;
    b1d6:	c1 ea 09             	shr    $0x9,%edx
    b1d9:	49 89 f8             	mov    %rdi,%r8
    b1dc:	44 8d 4a 01          	lea    0x1(%rdx),%r9d
{
    b1e0:	48 89 e5             	mov    %rsp,%rbp
    b1e3:	66 90                	xchg   %ax,%ax
    b1e5:	66 66 2e 0f 1f 84 00 	data16 cs nopw 0x0(%rax,%rax,1)
    b1ec:	00 00 00 00 
    readsect(pa, offset);
    b1f0:	44 89 ce             	mov    %r9d,%esi
    b1f3:	4c 89 c7             	mov    %r8,%rdi
  for(; pa < epa; pa += SECTSIZE, offset++)
    b1f6:	49 81 c0 00 02 00 00 	add    $0x200,%r8
    b1fd:	41 83 c1 01          	add    $0x1,%r9d
    readsect(pa, offset);
    b201:	e8 2a fe ff ff       	call   b030 <readsect>
  for(; pa < epa; pa += SECTSIZE, offset++)
    b206:	4d 39 d0             	cmp    %r10,%r8
    b209:	72 e5                	jb     b1f0 <readseg+0x30>
}
    b20b:	5d                   	pop    %rbp
    b20c:	c3                   	ret
    b20d:	0f 1f 00             	nopl   (%rax)
    b210:	c3                   	ret
